

Microchip Technology PIC18 LITE Macro Assembler V1.40 build -251452761 
                                                                                               Mon Feb 06 17:07:40 2017

Microchip Technology Omniscient Code Generator v1.40 (Free mode) build 201612010151
     1                           	processor	18F4550
     2                           	fnconf	rparam,??,?,0
     3                           	opt	pw 120
     4                           	opt	lm
     5                           	psect	idataBIGRAM,global,class=CODE,delta=1,noexec
     6                           	psect	smallconst,global,reloc=2,class=SMALLCONST,delta=1,noexec
     7                           	psect	cinit,global,reloc=2,class=CODE,delta=1
     8                           	psect	dataBIGRAM,global,class=BIGRAM,space=1,delta=1,lowdata,noexec
     9                           	psect	cstackCOMRAM,global,class=COMRAM,space=1,delta=1,noexec
    10                           	psect	text0,global,reloc=2,class=CODE,delta=1
    11                           	psect	text1,global,reloc=2,class=CODE,delta=1
    12                           	psect	text2,global,reloc=2,class=CODE,delta=1
    13                           	psect	text3,global,reloc=2,class=CODE,delta=1
    14                           	psect	text4,global,reloc=2,class=CODE,delta=1
    15                           	psect	text5,global,reloc=2,class=CODE,delta=1
    16                           	psect	text6,global,reloc=2,class=CODE,delta=1
    17                           	psect	text7,global,reloc=2,class=CODE,delta=1
    18                           	psect	text8,global,reloc=2,class=CODE,delta=1
    19                           	psect	text9,global,reloc=2,class=CODE,delta=1
    20                           	psect	intsave_regs,global,class=BIGRAM,space=1,delta=1,noexec
    21                           	psect	rparam,global,class=COMRAM,space=1,delta=1,noexec
    22  0000                     
    23                           ; Version 1.40
    24                           ; Generated 01/12/2016 GMT
    25                           ; 
    26                           ; Copyright Â© 2016, Microchip Technology Inc. and its subsidiaries ("Microchip")
    27                           ; All rights reserved.
    28                           ; 
    29                           ; This software is developed by Microchip Technology Inc. and its subsidiaries ("Microch
      +                          ip").
    30                           ; 
    31                           ; Redistribution and use in source and binary forms, with or without modification, are
    32                           ; permitted provided that the following conditions are met:
    33                           ; 
    34                           ;     1. Redistributions of source code must retain the above copyright notice, this lis
      +                          t of
    35                           ;        conditions and the following disclaimer.
    36                           ; 
    37                           ;     2. Redistributions in binary form must reproduce the above copyright notice, this 
      +                          list
    38                           ;        of conditions and the following disclaimer in the documentation and/or other
    39                           ;        materials provided with the distribution.
    40                           ; 
    41                           ;     3. Microchip's name may not be used to endorse or promote products derived from th
      +                          is
    42                           ;        software without specific prior written permission.
    43                           ; 
    44                           ; THIS SOFTWARE IS PROVIDED BY MICROCHIP "AS IS" AND ANY EXPRESS OR IMPLIED WARRANTIES,
    45                           ; INCLUDING, BUT NOT LIMITED TO, THE IMPLIED WARRANTIES OF MERCHANTABILITY AND FITNESS F
      +                          OR
    46                           ; PURPOSE ARE DISCLAIMED.  IN NO EVENT SHALL MICROCHIP BE LIABLE FOR ANY DIRECT, INDIREC
      +                          T,
    47                           ; INCIDENTAL, SPECIAL, EXEMPLARY, OR CONSEQUENTIAL DAMAGES (INCLUDING BUT NOT LIMITED TO
    48                           ; PROCUREMENT OF SUBSTITUTE GOODS OR SERVICES; LOSS OF USE, DATA OR PROFITS; OR BUSINESS
    49                           ; INTERRUPTION) HOWSOEVER CAUSED AND ON ANY THEORY OF LIABILITY, WHETHER IN CONTRACT, ST
      +                          RICT
    50                           ; LIABILITY, OR TORT (INCLUDING NEGLIGENCE OR OTHERWISE) ARISING IN ANY WAY OUT OF THE U
      +                          SE OF
    51                           ; THIS SOFTWARE, EVEN IF ADVISED OF THE POSSIBILITY OF SUCH DAMAGE.
    52                           ; 
    53                           ; 
    54                           ; Code-generator required, PIC18F4550 Definitions
    55                           ; 
    56                           ; SFR Addresses
    57  0000                     
    58                           	psect	idataBIGRAM
    59  000830                     __pidataBIGRAM:
    60                           	opt stack 0
    61                           
    62                           ;initializer for main@fileCharsEncoded
    63  000830  FE                 	db	254
    64  000831  FF                 	db	255
    65  000832  FF                 	db	255
    66  000833  FF                 	db	255
    67  000834  FE                 	db	254
    68  000835  FF                 	db	255
    69  000836  FE                 	db	254
    70  000837  FE                 	db	254
    71  000838  FE                 	db	254
    72  000839  FF                 	db	255
    73  00083A  FF                 	db	255
    74  00083B  FE                 	db	254
    75  00083C  FE                 	db	254
    76  00083D  FF                 	db	255
    77  00083E  FE                 	db	254
    78  00083F  FF                 	db	255
    79  000840  FE                 	db	254
    80  000841  FF                 	db	255
    81  000842  FF                 	db	255
    82  000843  FF                 	db	255
    83  000844  FE                 	db	254
    84  000845  FE                 	db	254
    85  000846  FF                 	db	255
    86  000847  FF                 	db	255
    87  000848  FE                 	db	254
    88  000849  FF                 	db	255
    89  00084A  FF                 	db	255
    90  00084B  FF                 	db	255
    91  00084C  FE                 	db	254
    92  00084D  FF                 	db	255
    93  00084E  FE                 	db	254
    94  00084F  FE                 	db	254
    95  000850  FE                 	db	254
    96  000851  FF                 	db	255
    97  000852  FF                 	db	255
    98  000853  FE                 	db	254
    99  000854  FE                 	db	254
   100  000855  FF                 	db	255
   101  000856  FE                 	db	254
   102  000857  FF                 	db	255
   103  000858  FE                 	db	254
   104  000859  FE                 	db	254
   105  00085A  FE                 	db	254
   106  00085B  FE                 	db	254
   107  00085C  FE                 	db	254
   108  00085D  FE                 	db	254
   109  00085E  FE                 	db	254
   110  00085F  FE                 	db	254
   111  000860  FE                 	db	254
   112  000861  FE                 	db	254
   113  000862  FF                 	db	255
   114  000863  FE                 	db	254
   115  000864  FE                 	db	254
   116  000865  FF                 	db	255
   117  000866  FE                 	db	254
   118  000867  FF                 	db	255
   119  000868  FE                 	db	254
   120  000869  FF                 	db	255
   121  00086A  FF                 	db	255
   122  00086B  FE                 	db	254
   123  00086C  FE                 	db	254
   124  00086D  FE                 	db	254
   125  00086E  FF                 	db	255
   126  00086F  FF                 	db	255
   127  000870  FE                 	db	254
   128  000871  FE                 	db	254
   129  000872  FE                 	db	254
   130  000873  FE                 	db	254
   131  000874  FE                 	db	254
   132  000875  FE                 	db	254
   133  000876  FE                 	db	254
   134  000877  FE                 	db	254
   135  000878  FE                 	db	254
   136  000879  FE                 	db	254
   137  00087A  FF                 	db	255
   138  00087B  FE                 	db	254
   139  00087C  FE                 	db	254
   140  00087D  FF                 	db	255
   141  00087E  FE                 	db	254
   142  00087F  FF                 	db	255
   143  000880  FE                 	db	254
   144  000881  FF                 	db	255
   145  000882  FF                 	db	255
   146  000883  FF                 	db	255
   147  000884  FE                 	db	254
   148  000885  FE                 	db	254
   149  000886  FF                 	db	255
   150  000887  FF                 	db	255
   151  000888  FE                 	db	254
   152  000889  FE                 	db	254
   153  00088A  FE                 	db	254
   154  00088B  FE                 	db	254
   155  00088C  FE                 	db	254
   156  00088D  FE                 	db	254
   157  00088E  FE                 	db	254
   158  00088F  FE                 	db	254
   159  000890  FE                 	db	254
   160  000891  FE                 	db	254
   161  000892  FF                 	db	255
   162  000893  FE                 	db	254
   163  000894  FE                 	db	254
   164  000895  FF                 	db	255
   165  000896  FE                 	db	254
   166  000897  FF                 	db	255
   167  000898  FE                 	db	254
   168  000899  FF                 	db	255
   169  00089A  FF                 	db	255
   170  00089B  FE                 	db	254
   171  00089C  FE                 	db	254
   172  00089D  FF                 	db	255
   173  00089E  FE                 	db	254
   174  00089F  FE                 	db	254
   175  0008A0  FE                 	db	254
   176  0008A1  FE                 	db	254
   177  0008A2  FE                 	db	254
   178  0008A3  FE                 	db	254
   179  0008A4  FE                 	db	254
   180  0008A5  FE                 	db	254
   181  0008A6  FE                 	db	254
   182  0008A7  FE                 	db	254
   183  0008A8  FE                 	db	254
   184  0008A9  FE                 	db	254
   185  0008AA  FE                 	db	254
   186  0008AB  FE                 	db	254
   187  0008AC  FE                 	db	254
   188  0008AD  FE                 	db	254
   189  0008AE  FE                 	db	254
   190  0008AF  FE                 	db	254
   191  0008B0  FF                 	db	255
   192  0008B1  FF                 	db	255
   193  0008B2  FF                 	db	255
   194  0008B3  FF                 	db	255
   195  0008B4  FF                 	db	255
   196  0008B5  FF                 	db	255
   197  0008B6  FF                 	db	255
   198  0008B7  FF                 	db	255
   199  0008B8  FF                 	db	255
   200  0008B9  FF                 	db	255
   201  0008BA  FF                 	db	255
   202  0008BB  FF                 	db	255
   203  0008BC  FF                 	db	255
   204  0008BD  FF                 	db	255
   205  0008BE  FF                 	db	255
   206  0008BF  FF                 	db	255
   207  0008C0  21                 	db	33
   208  0008C1  21                 	db	33
   209  0008C2  21                 	db	33
   210  0008C3  B3                 	db	179
   211  0008C4  B3                 	db	179
   212  0008C5  B3                 	db	179
   213  0008C6  B3                 	db	179
   214  0008C7  B3                 	db	179
   215  0008C8  B3                 	db	179
   216  0008C9  B3                 	db	179
   217  0008CA  B3                 	db	179
   218  0008CB  B3                 	db	179
   219  0008CC  21                 	db	33
   220  0008CD  21                 	db	33
   221  0008CE  21                 	db	33
   222  0008CF  B3                 	db	179
   223  0008D0  B3                 	db	179
   224  0008D1  B3                 	db	179
   225  0008D2  21                 	db	33
   226  0008D3  21                 	db	33
   227  0008D4  21                 	db	33
   228  0008D5  FF                 	db	255
   229  0008D6  FF                 	db	255
   230  0008D7  FF                 	db	255
   231  0008D8  FF                 	db	255
   232  0008D9  FF                 	db	255
   233  0008DA  FF                 	db	255
   234  0008DB  FF                 	db	255
   235  0008DC  FF                 	db	255
   236  0008DD  FF                 	db	255
   237  0008DE  FF                 	db	255
   238  0008DF  FF                 	db	255
   239  0008E0  FF                 	db	255
   240  0008E1  FF                 	db	255
   241  0008E2  FF                 	db	255
   242  0008E3  FF                 	db	255
   243  0008E4  FF                 	db	255
   244  0008E5  FF                 	db	255
   245  0008E6  FF                 	db	255
   246  0008E7  FF                 	db	255
   247  0008E8  FF                 	db	255
   248  0008E9  FF                 	db	255
   249  0008EA  FF                 	db	255
   250  0008EB  FF                 	db	255
   251  0008EC  FF                 	db	255
   252  0008ED  FF                 	db	255
   253  0008EE  FF                 	db	255
   254  0008EF  FF                 	db	255
   255  0008F0  FF                 	db	255
   256  0008F1  FF                 	db	255
   257  0008F2  FF                 	db	255
   258  0008F3  FF                 	db	255
   259  0008F4  FF                 	db	255
   260  0008F5  FF                 	db	255
   261  0008F6  FF                 	db	255
   262  0008F7  FF                 	db	255
   263  0008F8  FF                 	db	255
   264  0008F9  FF                 	db	255
   265  0008FA  FF                 	db	255
   266  0008FB  FF                 	db	255
   267  0008FC  FF                 	db	255
   268  0008FD  FF                 	db	255
   269  0008FE  FF                 	db	255
   270  0008FF  FF                 	db	255
   271  000900  FF                 	db	255
   272  000901  FF                 	db	255
   273  000902  FF                 	db	255
   274  000903  FF                 	db	255
   275  000904  FF                 	db	255
   276  000905  FF                 	db	255
   277  000906  FF                 	db	255
   278  000907  FF                 	db	255
   279  000908  FF                 	db	255
   280  000909  FF                 	db	255
   281  00090A  FF                 	db	255
   282  00090B  FF                 	db	255
   283  00090C  FF                 	db	255
   284  00090D  FF                 	db	255
   285  00090E  FF                 	db	255
   286  00090F  FF                 	db	255
   287  000910  FF                 	db	255
   288  000911  FF                 	db	255
   289  000912  FF                 	db	255
   290  000913  FF                 	db	255
   291  000914  FF                 	db	255
   292  000915  FF                 	db	255
   293  000916  FF                 	db	255
   294  000917  FF                 	db	255
   295  000918  FF                 	db	255
   296  000919  FF                 	db	255
   297  00091A  FF                 	db	255
   298  00091B  FF                 	db	255
   299  00091C  FF                 	db	255
   300  00091D  21                 	db	33
   301  00091E  21                 	db	33
   302  00091F  21                 	db	33
   303  000920  21                 	db	33
   304  000921  21                 	db	33
   305  000922  21                 	db	33
   306  000923  21                 	db	33
   307  000924  21                 	db	33
   308  000925  21                 	db	33
   309  000926  3F                 	db	63
   310  000927  7C                 	db	124
   311  000928  21                 	db	33
   312  000929  21                 	db	33
   313  00092A  21                 	db	33
   314  00092B  21                 	db	33
   315  00092C  21                 	db	33
   316  00092D  B3                 	db	179
   317  00092E  B3                 	db	179
   318  00092F  B3                 	db	179
   319  000930  B3                 	db	179
   320  000931  B3                 	db	179
   321  000932  B3                 	db	179
   322  000933  21                 	db	33
   323  000934  21                 	db	33
   324  000935  21                 	db	33
   325  000936  FF                 	db	255
   326  000937  FF                 	db	255
   327  000938  FF                 	db	255
   328  000939  FF                 	db	255
   329  00093A  FF                 	db	255
   330  00093B  FF                 	db	255
   331  00093C  FF                 	db	255
   332  00093D  FF                 	db	255
   333  00093E  FF                 	db	255
   334  00093F  FF                 	db	255
   335  000940  FF                 	db	255
   336  000941  FF                 	db	255
   337  000942  FF                 	db	255
   338  000943  FF                 	db	255
   339  000944  FF                 	db	255
   340  000945  FF                 	db	255
   341  000946  FF                 	db	255
   342  000947  FF                 	db	255
   343  000948  FF                 	db	255
   344  000949  FF                 	db	255
   345  00094A  FF                 	db	255
   346  00094B  FF                 	db	255
   347  00094C  FF                 	db	255
   348  00094D  FF                 	db	255
   349  00094E  FF                 	db	255
   350  00094F  FF                 	db	255
   351  000950  FF                 	db	255
   352  000951  FF                 	db	255
   353  000952  FF                 	db	255
   354  000953  FF                 	db	255
   355  000954  FF                 	db	255
   356  000955  FF                 	db	255
   357  000956  FF                 	db	255
   358  000957  FF                 	db	255
   359  000958  FF                 	db	255
   360  000959  FF                 	db	255
   361  00095A  FF                 	db	255
   362  00095B  FF                 	db	255
   363  00095C  FF                 	db	255
   364  00095D  FF                 	db	255
   365  00095E  FF                 	db	255
   366  00095F  FF                 	db	255
   367  000960  FF                 	db	255
   368  000961  FF                 	db	255
   369  000962  FF                 	db	255
   370  000963  FF                 	db	255
   371  000964  FF                 	db	255
   372  000965  FF                 	db	255
   373  000966  FF                 	db	255
   374  000967  FF                 	db	255
   375  000968  FF                 	db	255
   376  000969  FF                 	db	255
   377  00096A  FF                 	db	255
   378  00096B  FF                 	db	255
   379  00096C  FF                 	db	255
   380  00096D  FF                 	db	255
   381  00096E  FF                 	db	255
   382  00096F  FF                 	db	255
   383  000970  FF                 	db	255
   384  000971  FF                 	db	255
   385  000972  FF                 	db	255
   386  000973  FF                 	db	255
   387  000974  FF                 	db	255
   388  000975  FF                 	db	255
   389  000976  FF                 	db	255
   390  000977  FF                 	db	255
   391  000978  FF                 	db	255
   392  000979  FF                 	db	255
   393  00097A  FF                 	db	255
   394  00097B  21                 	db	33
   395  00097C  21                 	db	33
   396  00097D  21                 	db	33
   397  00097E  21                 	db	33
   398  00097F  21                 	db	33
   399  000980  21                 	db	33
   400  000981  21                 	db	33
   401  000982  21                 	db	33
   402  000983  21                 	db	33
   403  000984  3F                 	db	63
   404  000985  7C                 	db	124
   405  000986  21                 	db	33
   406  000987  21                 	db	33
   407  000988  21                 	db	33
   408  000989  21                 	db	33
   409  00098A  21                 	db	33
   410  00098B  21                 	db	33
   411  00098C  21                 	db	33
   412  00098D  21                 	db	33
   413  00098E  B3                 	db	179
   414  00098F  B3                 	db	179
   415  000990  B3                 	db	179
   416  000991  B3                 	db	179
   417  000992  B3                 	db	179
   418  000993  B3                 	db	179
   419  000994  FF                 	db	255
   420  000995  FF                 	db	255
   421  000996  FF                 	db	255
   422  000997  FF                 	db	255
   423  000998  FF                 	db	255
   424  000999  FF                 	db	255
   425  00099A  FF                 	db	255
   426  00099B  FF                 	db	255
   427  00099C  FF                 	db	255
   428  00099D  FF                 	db	255
   429  00099E  FF                 	db	255
   430  00099F  FF                 	db	255
   431  0009A0  FF                 	db	255
   432  0009A1  FF                 	db	255
   433  0009A2  FF                 	db	255
   434  0009A3  FF                 	db	255
   435  0009A4  FF                 	db	255
   436  0009A5  FF                 	db	255
   437  0009A6  FF                 	db	255
   438  0009A7  FF                 	db	255
   439  0009A8  FF                 	db	255
   440  0009A9  FF                 	db	255
   441  0009AA  FF                 	db	255
   442  0009AB  FF                 	db	255
   443  0009AC  FF                 	db	255
   444  0009AD  FF                 	db	255
   445  0009AE  FF                 	db	255
   446  0009AF  FF                 	db	255
   447  0009B0  FF                 	db	255
   448  0009B1  FF                 	db	255
   449  0009B2  FF                 	db	255
   450  0009B3  FF                 	db	255
   451  0009B4  FF                 	db	255
   452  0009B5  FF                 	db	255
   453  0009B6  FF                 	db	255
   454  0009B7  FF                 	db	255
   455  0009B8  FF                 	db	255
   456  0009B9  FF                 	db	255
   457  0009BA  FF                 	db	255
   458  0009BB  FF                 	db	255
   459  0009BC  FF                 	db	255
   460  0009BD  FF                 	db	255
   461  0009BE  FF                 	db	255
   462  0009BF  FF                 	db	255
   463  0009C0  FF                 	db	255
   464  0009C1  FF                 	db	255
   465  0009C2  FF                 	db	255
   466  0009C3  FF                 	db	255
   467  0009C4  FF                 	db	255
   468  0009C5  FF                 	db	255
   469  0009C6  FF                 	db	255
   470  0009C7  FF                 	db	255
   471  0009C8  FF                 	db	255
   472  0009C9  FF                 	db	255
   473  0009CA  FF                 	db	255
   474  0009CB  FF                 	db	255
   475  0009CC  FF                 	db	255
   476  0009CD  FF                 	db	255
   477  0009CE  FF                 	db	255
   478  0009CF  FF                 	db	255
   479  0009D0  FF                 	db	255
   480  0009D1  FF                 	db	255
   481  0009D2  FF                 	db	255
   482  0009D3  FF                 	db	255
   483  0009D4  FF                 	db	255
   484  0009D5  FF                 	db	255
   485  0009D6  FF                 	db	255
   486  0009D7  FF                 	db	255
   487  0009D8  FF                 	db	255
   488  0009D9  21                 	db	33
   489  0009DA  21                 	db	33
   490  0009DB  21                 	db	33
   491  0009DC  21                 	db	33
   492  0009DD  21                 	db	33
   493  0009DE  21                 	db	33
   494  0009DF  21                 	db	33
   495  0009E0  21                 	db	33
   496  0009E1  21                 	db	33
   497  0009E2  3F                 	db	63
   498  0009E3  7C                 	db	124
   499  0009E4  21                 	db	33
   500  0009E5  21                 	db	33
   501  0009E6  21                 	db	33
   502  0009E7  21                 	db	33
   503  0009E8  21                 	db	33
   504  0009E9  21                 	db	33
   505  0009EA  21                 	db	33
   506  0009EB  21                 	db	33
   507  0009EC  21                 	db	33
   508  0009ED  21                 	db	33
   509  0009EE  21                 	db	33
   510  0009EF  21                 	db	33
   511  0009F0  21                 	db	33
   512  0009F1  21                 	db	33
   513  0009F2  FF                 	db	255
   514  0009F3  FF                 	db	255
   515  0009F4  FF                 	db	255
   516  0009F5  FF                 	db	255
   517  0009F6  FF                 	db	255
   518  0009F7  FF                 	db	255
   519  0009F8  FF                 	db	255
   520  0009F9  FF                 	db	255
   521  0009FA  FF                 	db	255
   522  0009FB  FF                 	db	255
   523  0009FC  FF                 	db	255
   524  0009FD  FF                 	db	255
   525  0009FE  FF                 	db	255
   526  0009FF  FF                 	db	255
   527  000A00  FF                 	db	255
   528  000A01  FF                 	db	255
   529  000A02  FF                 	db	255
   530  000A03  FF                 	db	255
   531  000A04  FF                 	db	255
   532  000A05  FF                 	db	255
   533  000A06  FF                 	db	255
   534  000A07  FF                 	db	255
   535  000A08  FF                 	db	255
   536  000A09  FF                 	db	255
   537  000A0A  FF                 	db	255
   538  000A0B  FF                 	db	255
   539  000A0C  FF                 	db	255
   540  000A0D  FF                 	db	255
   541  000A0E  FF                 	db	255
   542  000A0F  FF                 	db	255
   543  000A10  FF                 	db	255
   544  000A11  FF                 	db	255
   545  000A12  FF                 	db	255
   546  000A13  FF                 	db	255
   547  000A14  FF                 	db	255
   548  000A15  FF                 	db	255
   549  000A16  FF                 	db	255
   550  000A17  FF                 	db	255
   551  000A18  FF                 	db	255
   552  000A19  FF                 	db	255
   553  000A1A  FF                 	db	255
   554  000A1B  FF                 	db	255
   555  000A1C  FF                 	db	255
   556  000A1D  FF                 	db	255
   557  000A1E  FF                 	db	255
   558  000A1F  FF                 	db	255
   559  000A20  FF                 	db	255
   560  000A21  FF                 	db	255
   561  000A22  FF                 	db	255
   562  000A23  FF                 	db	255
   563  000A24  FF                 	db	255
   564  000A25  FF                 	db	255
   565  000A26  FF                 	db	255
   566  000A27  FF                 	db	255
   567  000A28  FF                 	db	255
   568  000A29  FF                 	db	255
   569  000A2A  FF                 	db	255
   570  000A2B  FF                 	db	255
   571  000A2C  FF                 	db	255
   572  000A2D  FF                 	db	255
   573  000A2E  FF                 	db	255
   574  000A2F  FF                 	db	255
   575  000A30  FF                 	db	255
   576  000A31  FF                 	db	255
   577  000A32  FF                 	db	255
   578  000A33  FF                 	db	255
   579  000A34  FF                 	db	255
   580  000A35  FF                 	db	255
   581  000A36  FF                 	db	255
   582  000A37  21                 	db	33
   583  000A38  21                 	db	33
   584  000A39  21                 	db	33
   585  000A3A  21                 	db	33
   586  000A3B  21                 	db	33
   587  000A3C  21                 	db	33
   588  000A3D  21                 	db	33
   589  000A3E  21                 	db	33
   590  000A3F  21                 	db	33
   591  000A40  3F                 	db	63
   592  000A41  7C                 	db	124
   593  000A42  21                 	db	33
   594  000A43  21                 	db	33
   595  000A44  21                 	db	33
   596  000A45  21                 	db	33
   597  000A46  21                 	db	33
   598  000A47  21                 	db	33
   599  000A48  21                 	db	33
   600  000A49  21                 	db	33
   601  000A4A  21                 	db	33
   602  000A4B  21                 	db	33
   603  000A4C  21                 	db	33
   604  000A4D  21                 	db	33
   605  000A4E  21                 	db	33
   606  000A4F  21                 	db	33
   607  000A50  FF                 	db	255
   608  000A51  FF                 	db	255
   609  000A52  FF                 	db	255
   610  000A53  FF                 	db	255
   611  000A54  FF                 	db	255
   612  000A55  FF                 	db	255
   613  000A56  FF                 	db	255
   614  000A57  FF                 	db	255
   615  000A58  FF                 	db	255
   616  000A59  FF                 	db	255
   617  000A5A  FF                 	db	255
   618  000A5B  FF                 	db	255
   619  000A5C  FF                 	db	255
   620  000A5D  FF                 	db	255
   621  000A5E  FF                 	db	255
   622  000A5F  FF                 	db	255
   623  000A60  FF                 	db	255
   624  000A61  FF                 	db	255
   625  000A62  FF                 	db	255
   626  000A63  FF                 	db	255
   627  000A64  FF                 	db	255
   628  000A65  FF                 	db	255
   629  000A66  FF                 	db	255
   630  000A67  FF                 	db	255
   631  000A68  FF                 	db	255
   632  000A69  FF                 	db	255
   633  000A6A  FF                 	db	255
   634  000A6B  FF                 	db	255
   635  000A6C  FF                 	db	255
   636  000A6D  FF                 	db	255
   637  000A6E  FF                 	db	255
   638  000A6F  FF                 	db	255
   639  000A70  FF                 	db	255
   640  000A71  FF                 	db	255
   641  000A72  FF                 	db	255
   642  000A73  FF                 	db	255
   643  000A74  FF                 	db	255
   644  000A75  FF                 	db	255
   645  000A76  FF                 	db	255
   646  000A77  FF                 	db	255
   647  000A78  FF                 	db	255
   648  000A79  FF                 	db	255
   649  000A7A  FF                 	db	255
   650  000A7B  FF                 	db	255
   651  000A7C  FF                 	db	255
   652  000A7D  FF                 	db	255
   653  000A7E  FF                 	db	255
   654  000A7F  FF                 	db	255
   655  000A80  FF                 	db	255
   656  000A81  FF                 	db	255
   657  000A82  FF                 	db	255
   658  000A83  FF                 	db	255
   659  000A84  FF                 	db	255
   660  000A85  FF                 	db	255
   661  000A86  FF                 	db	255
   662  000A87  FF                 	db	255
   663  000A88  FF                 	db	255
   664  000A89  FF                 	db	255
   665  000A8A  FF                 	db	255
   666  000A8B  FF                 	db	255
   667  000A8C  FF                 	db	255
   668  000A8D  FF                 	db	255
   669  000A8E  FF                 	db	255
   670  000A8F  FF                 	db	255
   671  000A90  FF                 	db	255
   672  000A91  FF                 	db	255
   673  000A92  21                 	db	33
   674  000A93  21                 	db	33
   675  000A94  21                 	db	33
   676  000A95  21                 	db	33
   677  000A96  21                 	db	33
   678  000A97  21                 	db	33
   679  000A98  3F                 	db	63
   680  000A99  7C                 	db	124
   681  000A9A  21                 	db	33
   682  000A9B  21                 	db	33
   683  000A9C  21                 	db	33
   684  000A9D  21                 	db	33
   685  000A9E  21                 	db	33
   686  000A9F  3F                 	db	63
   687  000AA0  3F                 	db	63
   688  000AA1  3F                 	db	63
   689  000AA2  3F                 	db	63
   690  000AA3  7C                 	db	124
   691  000AA4  21                 	db	33
   692  000AA5  21                 	db	33
   693  000AA6  21                 	db	33
   694  000AA7  21                 	db	33
   695  000AA8  21                 	db	33
   696  000AA9  3F                 	db	63
   697  000AAA  7C                 	db	124
   698  000AAB  21                 	db	33
   699  000AAC  21                 	db	33
   700  000AAD  FF                 	db	255
   701  000AAE  FF                 	db	255
   702  000AAF  FF                 	db	255
   703  000AB0  FF                 	db	255
   704  000AB1  FF                 	db	255
   705  000AB2  FF                 	db	255
   706  000AB3  FF                 	db	255
   707  000AB4  FF                 	db	255
   708  000AB5  FF                 	db	255
   709  000AB6  FF                 	db	255
   710  000AB7  FF                 	db	255
   711  000AB8  FF                 	db	255
   712  000AB9  FF                 	db	255
   713  000ABA  FF                 	db	255
   714  000ABB  FF                 	db	255
   715  000ABC  FF                 	db	255
   716  000ABD  FF                 	db	255
   717  000ABE  FF                 	db	255
   718  000ABF  FF                 	db	255
   719  000AC0  FF                 	db	255
   720  000AC1  FF                 	db	255
   721  000AC2  FF                 	db	255
   722  000AC3  FF                 	db	255
   723  000AC4  FF                 	db	255
   724  000AC5  FF                 	db	255
   725  000AC6  FF                 	db	255
   726  000AC7  FF                 	db	255
   727  000AC8  FF                 	db	255
   728  000AC9  FF                 	db	255
   729  000ACA  FF                 	db	255
   730  000ACB  FF                 	db	255
   731  000ACC  FF                 	db	255
   732  000ACD  FF                 	db	255
   733  000ACE  FF                 	db	255
   734  000ACF  FF                 	db	255
   735  000AD0  FF                 	db	255
   736  000AD1  FF                 	db	255
   737  000AD2  FF                 	db	255
   738  000AD3  FF                 	db	255
   739  000AD4  FF                 	db	255
   740  000AD5  FF                 	db	255
   741  000AD6  FF                 	db	255
   742  000AD7  FF                 	db	255
   743  000AD8  FF                 	db	255
   744  000AD9  FF                 	db	255
   745  000ADA  FF                 	db	255
   746  000ADB  FF                 	db	255
   747  000ADC  FF                 	db	255
   748  000ADD  FF                 	db	255
   749  000ADE  FF                 	db	255
   750  000ADF  FF                 	db	255
   751  000AE0  FF                 	db	255
   752  000AE1  FF                 	db	255
   753  000AE2  FF                 	db	255
   754  000AE3  FF                 	db	255
   755  000AE4  FF                 	db	255
   756  000AE5  FF                 	db	255
   757  000AE6  FF                 	db	255
   758  000AE7  FF                 	db	255
   759  000AE8  FF                 	db	255
   760  000AE9  21                 	db	33
   761  000AEA  21                 	db	33
   762  000AEB  21                 	db	33
   763  000AEC  21                 	db	33
   764  000AED  21                 	db	33
   765  000AEE  21                 	db	33
   766  000AEF  21                 	db	33
   767  000AF0  21                 	db	33
   768  000AF1  21                 	db	33
   769  000AF2  21                 	db	33
   770  000AF3  21                 	db	33
   771  000AF4  21                 	db	33
   772  000AF5  4F                 	db	79
   773  000AF6  4F                 	db	79
   774  000AF7  4F                 	db	79
   775  000AF8  4F                 	db	79
   776  000AF9  4F                 	db	79
   777  000AFA  4F                 	db	79
   778  000AFB  4F                 	db	79
   779  000AFC  4F                 	db	79
   780  000AFD  4F                 	db	79
   781  000AFE  21                 	db	33
   782  000AFF  21                 	db	33
   783  000B00  21                 	db	33
   784  000B01  4F                 	db	79
   785  000B02  4F                 	db	79
   786  000B03  4F                 	db	79
   787  000B04  4F                 	db	79
   788  000B05  4F                 	db	79
   789  000B06  4F                 	db	79
   790  000B07  21                 	db	33
   791  000B08  21                 	db	33
   792  000B09  21                 	db	33
   793  000B0A  21                 	db	33
   794  000B0B  21                 	db	33
   795  000B0C  21                 	db	33
   796  000B0D  FF                 	db	255
   797  000B0E  FF                 	db	255
   798  000B0F  FF                 	db	255
   799  000B10  FF                 	db	255
   800  000B11  FF                 	db	255
   801  000B12  FF                 	db	255
   802  000B13  FF                 	db	255
   803  000B14  FF                 	db	255
   804  000B15  FF                 	db	255
   805  000B16  FF                 	db	255
   806  000B17  FF                 	db	255
   807  000B18  FF                 	db	255
   808  000B19  FF                 	db	255
   809  000B1A  FF                 	db	255
   810  000B1B  FF                 	db	255
   811  000B1C  FF                 	db	255
   812  000B1D  FF                 	db	255
   813  000B1E  FF                 	db	255
   814  000B1F  FF                 	db	255
   815  000B20  FF                 	db	255
   816  000B21  FF                 	db	255
   817  000B22  FF                 	db	255
   818  000B23  FF                 	db	255
   819  000B24  FF                 	db	255
   820  000B25  FF                 	db	255
   821  000B26  FF                 	db	255
   822  000B27  FF                 	db	255
   823  000B28  FF                 	db	255
   824  000B29  FF                 	db	255
   825  000B2A  FF                 	db	255
   826  000B2B  FF                 	db	255
   827  000B2C  FF                 	db	255
   828  000B2D  FF                 	db	255
   829  000B2E  FF                 	db	255
   830  000B2F  FF                 	db	255
   831  000B30  FF                 	db	255
   832  000B31  FF                 	db	255
   833  000B32  FF                 	db	255
   834  000B33  FF                 	db	255
   835  000B34  FF                 	db	255
   836  000B35  FF                 	db	255
   837  000B36  FF                 	db	255
   838  000B37  FF                 	db	255
   839  000B38  FF                 	db	255
   840  000B39  FF                 	db	255
   841  000B3A  FF                 	db	255
   842  000B3B  FF                 	db	255
   843  000B3C  FF                 	db	255
   844  000B3D  FF                 	db	255
   845  000B3E  FF                 	db	255
   846  000B3F  FF                 	db	255
   847  000B40  FF                 	db	255
   848  000B41  FF                 	db	255
   849  000B42  FF                 	db	255
   850  000B43  FF                 	db	255
   851  000B44  FF                 	db	255
   852  000B45  FF                 	db	255
   853  000B46  FF                 	db	255
   854  000B47  FF                 	db	255
   855  000B48  FF                 	db	255
   856  000B49  21                 	db	33
   857  000B4A  21                 	db	33
   858  000B4B  21                 	db	33
   859  000B4C  21                 	db	33
   860  000B4D  21                 	db	33
   861  000B4E  21                 	db	33
   862  000B4F  3F                 	db	63
   863  000B50  7C                 	db	124
   864  000B51  21                 	db	33
   865  000B52  21                 	db	33
   866  000B53  6B                 	db	107
   867  000B54  6D                 	db	109
   868  000B55  6D                 	db	109
   869  000B56  6B                 	db	107
   870  000B57  6D                 	db	109
   871  000B58  6D                 	db	109
   872  000B59  6B                 	db	107
   873  000B5A  6D                 	db	109
   874  000B5B  6D                 	db	109
   875  000B5C  21                 	db	33
   876  000B5D  21                 	db	33
   877  000B5E  21                 	db	33
   878  000B5F  6B                 	db	107
   879  000B60  6D                 	db	109
   880  000B61  6D                 	db	109
   881  000B62  6B                 	db	107
   882  000B63  6D                 	db	109
   883  000B64  6D                 	db	109
   884  000B65  21                 	db	33
   885  000B66  21                 	db	33
   886  000B67  21                 	db	33
   887  000B68  3F                 	db	63
   888  000B69  7C                 	db	124
   889  000B6A  21                 	db	33
   890  000B6B  21                 	db	33
   891  000B6C  FF                 	db	255
   892  000B6D  FF                 	db	255
   893  000B6E  FF                 	db	255
   894  000B6F  FF                 	db	255
   895  000B70  FF                 	db	255
   896  000B71  FF                 	db	255
   897  000B72  FF                 	db	255
   898  000B73  FF                 	db	255
   899  000B74  FF                 	db	255
   900  000B75  FF                 	db	255
   901  000B76  FF                 	db	255
   902  000B77  FF                 	db	255
   903  000B78  FF                 	db	255
   904  000B79  FF                 	db	255
   905  000B7A  FF                 	db	255
   906  000B7B  FF                 	db	255
   907  000B7C  FF                 	db	255
   908  000B7D  FF                 	db	255
   909  000B7E  FF                 	db	255
   910  000B7F  FF                 	db	255
   911  000B80  FF                 	db	255
   912  000B81  FF                 	db	255
   913  000B82  FF                 	db	255
   914  000B83  FF                 	db	255
   915  000B84  FF                 	db	255
   916  000B85  FF                 	db	255
   917  000B86  FF                 	db	255
   918  000B87  FF                 	db	255
   919  000B88  FF                 	db	255
   920  000B89  FF                 	db	255
   921  000B8A  FF                 	db	255
   922  000B8B  FF                 	db	255
   923  000B8C  FF                 	db	255
   924  000B8D  FF                 	db	255
   925  000B8E  FF                 	db	255
   926  000B8F  FF                 	db	255
   927  000B90  FF                 	db	255
   928  000B91  FF                 	db	255
   929  000B92  FF                 	db	255
   930  000B93  FF                 	db	255
   931  000B94  FF                 	db	255
   932  000B95  FF                 	db	255
   933  000B96  FF                 	db	255
   934  000B97  FF                 	db	255
   935  000B98  FF                 	db	255
   936  000B99  FF                 	db	255
   937  000B9A  FF                 	db	255
   938  000B9B  FF                 	db	255
   939  000B9C  FF                 	db	255
   940  000B9D  FF                 	db	255
   941  000B9E  FF                 	db	255
   942  000B9F  FF                 	db	255
   943  000BA0  FF                 	db	255
   944  000BA1  FF                 	db	255
   945  000BA2  FF                 	db	255
   946  000BA3  FF                 	db	255
   947  000BA4  FF                 	db	255
   948  000BA5  21                 	db	33
   949  000BA6  21                 	db	33
   950  000BA7  21                 	db	33
   951  000BA8  21                 	db	33
   952  000BA9  21                 	db	33
   953  000BAA  21                 	db	33
   954  000BAB  21                 	db	33
   955  000BAC  21                 	db	33
   956  000BAD  21                 	db	33
   957  000BAE  6B                 	db	107
   958  000BAF  6D                 	db	109
   959  000BB0  6D                 	db	109
   960  000BB1  21                 	db	33
   961  000BB2  21                 	db	33
   962  000BB3  21                 	db	33
   963  000BB4  21                 	db	33
   964  000BB5  21                 	db	33
   965  000BB6  21                 	db	33
   966  000BB7  21                 	db	33
   967  000BB8  21                 	db	33
   968  000BB9  21                 	db	33
   969  000BBA  B3                 	db	179
   970  000BBB  B3                 	db	179
   971  000BBC  B3                 	db	179
   972  000BBD  21                 	db	33
   973  000BBE  21                 	db	33
   974  000BBF  21                 	db	33
   975  000BC0  21                 	db	33
   976  000BC1  21                 	db	33
   977  000BC2  21                 	db	33
   978  000BC3  6B                 	db	107
   979  000BC4  6D                 	db	109
   980  000BC5  6D                 	db	109
   981  000BC6  3F                 	db	63
   982  000BC7  7C                 	db	124
   983  000BC8  21                 	db	33
   984  000BC9  21                 	db	33
   985  000BCA  FF                 	db	255
   986  000BCB  FF                 	db	255
   987  000BCC  FF                 	db	255
   988  000BCD  FF                 	db	255
   989  000BCE  FF                 	db	255
   990  000BCF  FF                 	db	255
   991  000BD0  FF                 	db	255
   992  000BD1  FF                 	db	255
   993  000BD2  FF                 	db	255
   994  000BD3  FF                 	db	255
   995  000BD4  FF                 	db	255
   996  000BD5  FF                 	db	255
   997  000BD6  FF                 	db	255
   998  000BD7  FF                 	db	255
   999  000BD8  FF                 	db	255
  1000  000BD9  FF                 	db	255
  1001  000BDA  FF                 	db	255
  1002  000BDB  FF                 	db	255
  1003  000BDC  FF                 	db	255
  1004  000BDD  FF                 	db	255
  1005  000BDE  FF                 	db	255
  1006  000BDF  FF                 	db	255
  1007  000BE0  FF                 	db	255
  1008  000BE1  FF                 	db	255
  1009  000BE2  FF                 	db	255
  1010  000BE3  FF                 	db	255
  1011  000BE4  FF                 	db	255
  1012  000BE5  FF                 	db	255
  1013  000BE6  FF                 	db	255
  1014  000BE7  FF                 	db	255
  1015  000BE8  FF                 	db	255
  1016  000BE9  FF                 	db	255
  1017  000BEA  FF                 	db	255
  1018  000BEB  FF                 	db	255
  1019  000BEC  FF                 	db	255
  1020  000BED  FF                 	db	255
  1021  000BEE  FF                 	db	255
  1022  000BEF  FF                 	db	255
  1023  000BF0  FF                 	db	255
  1024  000BF1  FF                 	db	255
  1025  000BF2  FF                 	db	255
  1026  000BF3  FF                 	db	255
  1027  000BF4  FF                 	db	255
  1028  000BF5  FF                 	db	255
  1029  000BF6  FF                 	db	255
  1030  000BF7  FF                 	db	255
  1031  000BF8  FF                 	db	255
  1032  000BF9  FF                 	db	255
  1033  000BFA  FF                 	db	255
  1034  000BFB  FF                 	db	255
  1035  000BFC  FF                 	db	255
  1036  000BFD  FF                 	db	255
  1037  000BFE  FF                 	db	255
  1038  000BFF  FF                 	db	255
  1039  000C00  21                 	db	33
  1040  000C01  21                 	db	33
  1041  000C02  21                 	db	33
  1042  000C03  21                 	db	33
  1043  000C04  21                 	db	33
  1044  000C05  21                 	db	33
  1045  000C06  21                 	db	33
  1046  000C07  21                 	db	33
  1047  000C08  21                 	db	33
  1048  000C09  21                 	db	33
  1049  000C0A  21                 	db	33
  1050  000C0B  21                 	db	33
  1051  000C0C  21                 	db	33
  1052  000C0D  21                 	db	33
  1053  000C0E  21                 	db	33
  1054  000C0F  21                 	db	33
  1055  000C10  21                 	db	33
  1056  000C11  21                 	db	33
  1057  000C12  3F                 	db	63
  1058  000C13  7C                 	db	124
  1059  000C14  21                 	db	33
  1060  000C15  21                 	db	33
  1061  000C16  21                 	db	33
  1062  000C17  21                 	db	33
  1063  000C18  21                 	db	33
  1064  000C19  21                 	db	33
  1065  000C1A  21                 	db	33
  1066  000C1B  21                 	db	33
  1067  000C1C  21                 	db	33
  1068  000C1D  21                 	db	33
  1069  000C1E  21                 	db	33
  1070  000C1F  6B                 	db	107
  1071  000C20  6D                 	db	109
  1072  000C21  6D                 	db	109
  1073  000C22  21                 	db	33
  1074  000C23  21                 	db	33
  1075  000C24  21                 	db	33
  1076  000C25  21                 	db	33
  1077  000C26  21                 	db	33
  1078  000C27  21                 	db	33
  1079  000C28  FF                 	db	255
  1080  000C29  FF                 	db	255
  1081  000C2A  FF                 	db	255
  1082  000C2B  FF                 	db	255
  1083  000C2C  FF                 	db	255
  1084  000C2D  FF                 	db	255
  1085  000C2E  FF                 	db	255
  1086  000C2F  FF                 	db	255
  1087  000C30  FF                 	db	255
  1088  000C31  FF                 	db	255
  1089  000C32  FF                 	db	255
  1090  000C33  FF                 	db	255
  1091  000C34  FF                 	db	255
  1092  000C35  FF                 	db	255
  1093  000C36  FF                 	db	255
  1094  000C37  FF                 	db	255
  1095  000C38  FF                 	db	255
  1096  000C39  FF                 	db	255
  1097  000C3A  FF                 	db	255
  1098  000C3B  FF                 	db	255
  1099  000C3C  FF                 	db	255
  1100  000C3D  FF                 	db	255
  1101  000C3E  FF                 	db	255
  1102  000C3F  FF                 	db	255
  1103  000C40  FF                 	db	255
  1104  000C41  FF                 	db	255
  1105  000C42  FF                 	db	255
  1106  000C43  FF                 	db	255
  1107  000C44  FF                 	db	255
  1108  000C45  FF                 	db	255
  1109  000C46  FF                 	db	255
  1110  000C47  FF                 	db	255
  1111  000C48  FF                 	db	255
  1112  000C49  FF                 	db	255
  1113  000C4A  FF                 	db	255
  1114  000C4B  FF                 	db	255
  1115  000C4C  FF                 	db	255
  1116  000C4D  FF                 	db	255
  1117  000C4E  FF                 	db	255
  1118  000C4F  FF                 	db	255
  1119  000C50  FF                 	db	255
  1120  000C51  FF                 	db	255
  1121  000C52  FF                 	db	255
  1122  000C53  FF                 	db	255
  1123  000C54  FF                 	db	255
  1124  000C55  FF                 	db	255
  1125  000C56  FF                 	db	255
  1126  000C57  FF                 	db	255
  1127  000C58  FF                 	db	255
  1128  000C59  FF                 	db	255
  1129  000C5A  FF                 	db	255
  1130  000C5B  FF                 	db	255
  1131  000C5C  FF                 	db	255
  1132  000C5D  FF                 	db	255
  1133  000C5E  21                 	db	33
  1134  000C5F  21                 	db	33
  1135  000C60  21                 	db	33
  1136  000C61  21                 	db	33
  1137  000C62  21                 	db	33
  1138  000C63  21                 	db	33
  1139  000C64  21                 	db	33
  1140  000C65  21                 	db	33
  1141  000C66  21                 	db	33
  1142  000C67  4F                 	db	79
  1143  000C68  4F                 	db	79
  1144  000C69  4F                 	db	79
  1145  000C6A  4F                 	db	79
  1146  000C6B  4F                 	db	79
  1147  000C6C  4F                 	db	79
  1148  000C6D  6B                 	db	107
  1149  000C6E  6D                 	db	109
  1150  000C6F  6D                 	db	109
  1151  000C70  6B                 	db	107
  1152  000C71  6D                 	db	109
  1153  000C72  6D                 	db	109
  1154  000C73  21                 	db	33
  1155  000C74  21                 	db	33
  1156  000C75  21                 	db	33
  1157  000C76  21                 	db	33
  1158  000C77  21                 	db	33
  1159  000C78  21                 	db	33
  1160  000C79  21                 	db	33
  1161  000C7A  21                 	db	33
  1162  000C7B  21                 	db	33
  1163  000C7C  3F                 	db	63
  1164  000C7D  3F                 	db	63
  1165  000C7E  3F                 	db	63
  1166  000C7F  6B                 	db	107
  1167  000C80  6D                 	db	109
  1168  000C81  6D                 	db	109
  1169  000C82  21                 	db	33
  1170  000C83  21                 	db	33
  1171  000C84  21                 	db	33
  1172  000C85  21                 	db	33
  1173  000C86  21                 	db	33
  1174  000C87  21                 	db	33
  1175  000C88  FF                 	db	255
  1176  000C89  FF                 	db	255
  1177  000C8A  FF                 	db	255
  1178  000C8B  FF                 	db	255
  1179  000C8C  FF                 	db	255
  1180  000C8D  FF                 	db	255
  1181  000C8E  21                 	db	33
  1182  000C8F  21                 	db	33
  1183  000C90  21                 	db	33
  1184  000C91  21                 	db	33
  1185  000C92  21                 	db	33
  1186  000C93  21                 	db	33
  1187  000C94  21                 	db	33
  1188  000C95  21                 	db	33
  1189  000C96  21                 	db	33
  1190  000C97  FF                 	db	255
  1191  000C98  FF                 	db	255
  1192  000C99  FF                 	db	255
  1193  000C9A  FF                 	db	255
  1194  000C9B  FF                 	db	255
  1195  000C9C  FF                 	db	255
  1196  000C9D  FF                 	db	255
  1197  000C9E  FF                 	db	255
  1198  000C9F  FF                 	db	255
  1199  000CA0  FF                 	db	255
  1200  000CA1  FF                 	db	255
  1201  000CA2  FF                 	db	255
  1202  000CA3  FF                 	db	255
  1203  000CA4  FF                 	db	255
  1204  000CA5  FF                 	db	255
  1205  000CA6  FF                 	db	255
  1206  000CA7  FF                 	db	255
  1207  000CA8  FF                 	db	255
  1208  000CA9  FF                 	db	255
  1209  000CAA  FF                 	db	255
  1210  000CAB  FF                 	db	255
  1211  000CAC  FF                 	db	255
  1212  000CAD  FF                 	db	255
  1213  000CAE  FF                 	db	255
  1214  000CAF  FF                 	db	255
  1215  000CB0  FF                 	db	255
  1216  000CB1  FF                 	db	255
  1217  000CB2  FF                 	db	255
  1218  000CB3  FF                 	db	255
  1219  000CB4  FF                 	db	255
  1220  000CB5  FF                 	db	255
  1221  000CB6  FF                 	db	255
  1222  000CB7  FF                 	db	255
  1223  000CB8  FF                 	db	255
  1224  000CB9  FF                 	db	255
  1225  000CBA  FF                 	db	255
  1226  000CBB  FF                 	db	255
  1227  000CBC  FF                 	db	255
  1228  000CBD  FF                 	db	255
  1229  000CBE  FF                 	db	255
  1230  000CBF  FF                 	db	255
  1231  000CC0  FF                 	db	255
  1232  000CC1  FF                 	db	255
  1233  000CC2  FF                 	db	255
  1234  000CC3  FF                 	db	255
  1235  000CC4  FF                 	db	255
  1236  000CC5  FF                 	db	255
  1237  000CC6  FF                 	db	255
  1238  000CC7  21                 	db	33
  1239  000CC8  21                 	db	33
  1240  000CC9  21                 	db	33
  1241  000CCA  6B                 	db	107
  1242  000CCB  6D                 	db	109
  1243  000CCC  6D                 	db	109
  1244  000CCD  6B                 	db	107
  1245  000CCE  6D                 	db	109
  1246  000CCF  6D                 	db	109
  1247  000CD0  3F                 	db	63
  1248  000CD1  3F                 	db	63
  1249  000CD2  3F                 	db	63
  1250  000CD3  3F                 	db	63
  1251  000CD4  3F                 	db	63
  1252  000CD5  3F                 	db	63
  1253  000CD6  3F                 	db	63
  1254  000CD7  3F                 	db	63
  1255  000CD8  3F                 	db	63
  1256  000CD9  3F                 	db	63
  1257  000CDA  3F                 	db	63
  1258  000CDB  3F                 	db	63
  1259  000CDC  3F                 	db	63
  1260  000CDD  3F                 	db	63
  1261  000CDE  3F                 	db	63
  1262  000CDF  6B                 	db	107
  1263  000CE0  6D                 	db	109
  1264  000CE1  6D                 	db	109
  1265  000CE2  6B                 	db	107
  1266  000CE3  6D                 	db	109
  1267  000CE4  6D                 	db	109
  1268  000CE5  FF                 	db	255
  1269  000CE6  FF                 	db	255
  1270  000CE7  FF                 	db	255
  1271  000CE8  FF                 	db	255
  1272  000CE9  FF                 	db	255
  1273  000CEA  FF                 	db	255
  1274  000CEB  21                 	db	33
  1275  000CEC  21                 	db	33
  1276  000CED  21                 	db	33
  1277  000CEE  21                 	db	33
  1278  000CEF  21                 	db	33
  1279  000CF0  21                 	db	33
  1280  000CF1  6B                 	db	107
  1281  000CF2  6D                 	db	109
  1282  000CF3  6D                 	db	109
  1283  000CF4  6B                 	db	107
  1284  000CF5  6D                 	db	109
  1285  000CF6  6D                 	db	109
  1286  000CF7  FF                 	db	255
  1287  000CF8  FF                 	db	255
  1288  000CF9  FF                 	db	255
  1289  000CFA  FF                 	db	255
  1290  000CFB  FF                 	db	255
  1291  000CFC  FF                 	db	255
  1292  000CFD  FF                 	db	255
  1293  000CFE  FF                 	db	255
  1294  000CFF  FF                 	db	255
  1295  000D00  FF                 	db	255
  1296  000D01  FF                 	db	255
  1297  000D02  FF                 	db	255
  1298  000D03  FF                 	db	255
  1299  000D04  FF                 	db	255
  1300  000D05  FF                 	db	255
  1301  000D06  FF                 	db	255
  1302  000D07  FF                 	db	255
  1303  000D08  FF                 	db	255
  1304  000D09  FF                 	db	255
  1305  000D0A  FF                 	db	255
  1306  000D0B  FF                 	db	255
  1307  000D0C  FF                 	db	255
  1308  000D0D  FF                 	db	255
  1309  000D0E  FF                 	db	255
  1310  000D0F  FF                 	db	255
  1311  000D10  FF                 	db	255
  1312  000D11  FF                 	db	255
  1313  000D12  FF                 	db	255
  1314  000D13  FF                 	db	255
  1315  000D14  FF                 	db	255
  1316  000D15  FF                 	db	255
  1317  000D16  FF                 	db	255
  1318  000D17  FF                 	db	255
  1319  000D18  FF                 	db	255
  1320  000D19  FF                 	db	255
  1321  000D1A  FE                 	db	254
  1322  000D1B  FE                 	db	254
  1323  000D1C  FF                 	db	255
  1324  000D1D  FE                 	db	254
  1325  000D1E  FE                 	db	254
  1326  000D1F  FE                 	db	254
  1327  000D20  FE                 	db	254
  1328  000D21  FE                 	db	254
  1329  000D22  FE                 	db	254
  1330  000D23  FE                 	db	254
  1331  000D24  21                 	db	33
  1332  000D25  20                 	db	32
  1333  000D26  20                 	db	32
  1334  000D27  20                 	db	32
  1335  000D28  20                 	db	32
  1336  000D29  20                 	db	32
  1337  000D2A  20                 	db	32
  1338  000D2B  20                 	db	32
  1339  000D2C  21                 	db	33
  1340  000D2D  20                 	db	32
  1341  000D2E  20                 	db	32
  1342  000D2F  20                 	db	32
  1343  000D30  20                 	db	32
  1344  000D31  20                 	db	32
  1345  000D32  21                 	db	33
  1346  000D33  20                 	db	32
  1347  000D34  21                 	db	33
  1348  000D35  21                 	db	33
  1349  000D36  20                 	db	32
  1350  000D37  20                 	db	32
  1351  000D38  21                 	db	33
  1352  000D39  20                 	db	32
  1353  000D3A  21                 	db	33
  1354  000D3B  20                 	db	32
  1355  000D3C  21                 	db	33
  1356  000D3D  21                 	db	33
  1357  000D3E  20                 	db	32
  1358  000D3F  20                 	db	32
  1359  000D40  21                 	db	33
  1360  000D41  20                 	db	32
  1361  000D42  21                 	db	33
  1362  000D43  20                 	db	32
  1363  000D44  21                 	db	33
  1364  000D45  FF                 	db	255
  1365  000D46  FE                 	db	254
  1366  000D47  FE                 	db	254
  1367  000D48  FF                 	db	255
  1368  000D49  FF                 	db	255
  1369  000D4A  FF                 	db	255
  1370  000D4B  20                 	db	32
  1371  000D4C  21                 	db	33
  1372  000D4D  21                 	db	33
  1373  000D4E  6A                 	db	106
  1374  000D4F  6C                 	db	108
  1375  000D50  6D                 	db	109
  1376  000D51  6A                 	db	106
  1377  000D52  6D                 	db	109
  1378  000D53  6C                 	db	108
  1379  000D54  6B                 	db	107
  1380  000D55  6D                 	db	109
  1381  000D56  6C                 	db	108
  1382  000D57  FE                 	db	254
  1383  000D58  FF                 	db	255
  1384  000D59  FE                 	db	254
  1385  000D5A  FF                 	db	255
  1386  000D5B  FE                 	db	254
  1387  000D5C  FF                 	db	255
  1388  000D5D  FF                 	db	255
  1389  000D5E  FE                 	db	254
  1390  000D5F  FE                 	db	254
  1391  000D60  FF                 	db	255
  1392  000D61  FF                 	db	255
  1393  000D62  FF                 	db	255
  1394  000D63  FE                 	db	254
  1395  000D64  FF                 	db	255
  1396  000D65  FF                 	db	255
  1397  000D66  FE                 	db	254
  1398  000D67  FE                 	db	254
  1399  000D68  FF                 	db	255
  1400  000D69  FE                 	db	254
  1401  000D6A  FF                 	db	255
  1402  000D6B  FE                 	db	254
  1403  000D6C  FF                 	db	255
  1404  000D6D  FF                 	db	255
  1405  000D6E  FE                 	db	254
  1406  000D6F  FE                 	db	254
  1407  000D70  FF                 	db	255
  1408  000D71  FE                 	db	254
  1409  000D72  FF                 	db	255
  1410  000D73  FE                 	db	254
  1411  000D74  FF                 	db	255
  1412  000D75  FF                 	db	255
  1413  000D76  FE                 	db	254
  1414  000D77  FE                 	db	254
  1415  000D78  FF                 	db	255
  1416  000D79  FF                 	db	255
  1417  000D7A  FE                 	db	254
  1418  000D7B  FE                 	db	254
  1419  000D7C  FF                 	db	255
  1420  000D7D  FE                 	db	254
  1421  000D7E  20                 	db	32
  1422  000D7F  20                 	db	32
  1423  000D80  20                 	db	32
  1424  000D81  20                 	db	32
  1425  000D82  20                 	db	32
  1426  000D83  20                 	db	32
  1427  000D84  21                 	db	33
  1428  000D85  20                 	db	32
  1429  000D86  20                 	db	32
  1430  000D87  20                 	db	32
  1431  000D88  20                 	db	32
  1432  000D89  20                 	db	32
  1433  000D8A  20                 	db	32
  1434  000D8B  20                 	db	32
  1435  000D8C  21                 	db	33
  1436  000D8D  3E                 	db	62
  1437  000D8E  3E                 	db	62
  1438  000D8F  3E                 	db	62
  1439  000D90  B2                 	db	178
  1440  000D91  B2                 	db	178
  1441  000D92  B3                 	db	179
  1442  000D93  B2                 	db	178
  1443  000D94  B3                 	db	179
  1444  000D95  B3                 	db	179
  1445  000D96  B2                 	db	178
  1446  000D97  B2                 	db	178
  1447  000D98  B3                 	db	179
  1448  000D99  4E                 	db	78
  1449  000D9A  4F                 	db	79
  1450  000D9B  4E                 	db	78
  1451  000D9C  21                 	db	33
  1452  000D9D  21                 	db	33
  1453  000D9E  20                 	db	32
  1454  000D9F  20                 	db	32
  1455  000DA0  21                 	db	33
  1456  000DA1  20                 	db	32
  1457  000DA2  21                 	db	33
  1458  000DA3  20                 	db	32
  1459  000DA4  21                 	db	33
  1460  000DA5  21                 	db	33
  1461  000DA6  20                 	db	32
  1462  000DA7  20                 	db	32
  1463  000DA8  FF                 	db	255
  1464  000DA9  FF                 	db	255
  1465  000DAA  FE                 	db	254
  1466  000DAB  FE                 	db	254
  1467  000DAC  FF                 	db	255
  1468  000DAD  FE                 	db	254
  1469  000DAE  6A                 	db	106
  1470  000DAF  6C                 	db	108
  1471  000DB0  6C                 	db	108
  1472  000DB1  6A                 	db	106
  1473  000DB2  6C                 	db	108
  1474  000DB3  6C                 	db	108
  1475  000DB4  21                 	db	33
  1476  000DB5  20                 	db	32
  1477  000DB6  20                 	db	32
  1478  000DB7  FE                 	db	254
  1479  000DB8  FE                 	db	254
  1480  000DB9  FE                 	db	254
  1481  000DBA  FE                 	db	254
  1482  000DBB  FE                 	db	254
  1483  000DBC  FF                 	db	255
  1484  000DBD  FE                 	db	254
  1485  000DBE  FE                 	db	254
  1486  000DBF  FE                 	db	254
  1487  000DC0  FE                 	db	254
  1488  000DC1  FE                 	db	254
  1489  000DC2  FF                 	db	255
  1490  000DC3  FF                 	db	255
  1491  000DC4  FF                 	db	255
  1492  000DC5  FF                 	db	255
  1493  000DC6  FF                 	db	255
  1494  000DC7  FF                 	db	255
  1495  000DC8  FF                 	db	255
  1496  000DC9  FF                 	db	255
  1497  000DCA  FF                 	db	255
  1498  000DCB  FF                 	db	255
  1499  000DCC  FF                 	db	255
  1500  000DCD  FF                 	db	255
  1501  000DCE  FF                 	db	255
  1502  000DCF  FF                 	db	255
  1503  000DD0  FF                 	db	255
  1504  000DD1  FF                 	db	255
  1505  000DD2  FF                 	db	255
  1506  000DD3  FF                 	db	255
  1507  000DD4  FF                 	db	255
  1508  000DD5  FF                 	db	255
  1509  000DD6  FF                 	db	255
  1510  000DD7  FF                 	db	255
  1511  000DD8  FF                 	db	255
  1512  000DD9  FF                 	db	255
  1513  000DDA  FF                 	db	255
  1514  000DDB  21                 	db	33
  1515  000DDC  21                 	db	33
  1516  000DDD  21                 	db	33
  1517  000DDE  21                 	db	33
  1518  000DDF  21                 	db	33
  1519  000DE0  21                 	db	33
  1520  000DE1  3F                 	db	63
  1521  000DE2  3F                 	db	63
  1522  000DE3  3F                 	db	63
  1523  000DE4  3F                 	db	63
  1524  000DE5  3F                 	db	63
  1525  000DE6  3F                 	db	63
  1526  000DE7  3F                 	db	63
  1527  000DE8  3F                 	db	63
  1528  000DE9  3F                 	db	63
  1529  000DEA  4F                 	db	79
  1530  000DEB  4F                 	db	79
  1531  000DEC  4F                 	db	79
  1532  000DED  3F                 	db	63
  1533  000DEE  3F                 	db	63
  1534  000DEF  3F                 	db	63
  1535  000DF0  4F                 	db	79
  1536  000DF1  4F                 	db	79
  1537  000DF2  4F                 	db	79
  1538  000DF3  4F                 	db	79
  1539  000DF4  4F                 	db	79
  1540  000DF5  4F                 	db	79
  1541  000DF6  4F                 	db	79
  1542  000DF7  4F                 	db	79
  1543  000DF8  4F                 	db	79
  1544  000DF9  4F                 	db	79
  1545  000DFA  4F                 	db	79
  1546  000DFB  4F                 	db	79
  1547  000DFC  4F                 	db	79
  1548  000DFD  4F                 	db	79
  1549  000DFE  4F                 	db	79
  1550  000DFF  4F                 	db	79
  1551  000E00  4F                 	db	79
  1552  000E01  4F                 	db	79
  1553  000E02  3F                 	db	63
  1554  000E03  3F                 	db	63
  1555  000E04  3F                 	db	63
  1556  000E05  3F                 	db	63
  1557  000E06  7C                 	db	124
  1558  000E07  21                 	db	33
  1559  000E08  21                 	db	33
  1560  000E09  21                 	db	33
  1561  000E0A  21                 	db	33
  1562  000E0B  21                 	db	33
  1563  000E0C  6B                 	db	107
  1564  000E0D  6D                 	db	109
  1565  000E0E  6D                 	db	109
  1566  000E0F  6B                 	db	107
  1567  000E10  6D                 	db	109
  1568  000E11  6D                 	db	109
  1569  000E12  FF                 	db	255
  1570  000E13  FF                 	db	255
  1571  000E14  FF                 	db	255
  1572  000E15  FF                 	db	255
  1573  000E16  FF                 	db	255
  1574  000E17  FF                 	db	255
  1575  000E18  FF                 	db	255
  1576  000E19  FF                 	db	255
  1577  000E1A  FF                 	db	255
  1578  000E1B  FF                 	db	255
  1579  000E1C  FF                 	db	255
  1580  000E1D  FF                 	db	255
  1581  000E1E  FF                 	db	255
  1582  000E1F  FF                 	db	255
  1583  000E20  FF                 	db	255
  1584  000E21  FF                 	db	255
  1585  000E22  FF                 	db	255
  1586  000E23  FF                 	db	255
  1587  000E24  FF                 	db	255
  1588  000E25  FF                 	db	255
  1589  000E26  FF                 	db	255
  1590  000E27  FF                 	db	255
  1591  000E28  FF                 	db	255
  1592  000E29  FF                 	db	255
  1593  000E2A  FF                 	db	255
  1594  000E2B  FF                 	db	255
  1595  000E2C  FF                 	db	255
  1596  000E2D  FF                 	db	255
  1597  000E2E  FF                 	db	255
  1598  000E2F  FF                 	db	255
  1599  000E30  FF                 	db	255
  1600  000E31  FF                 	db	255
  1601  000E32  FF                 	db	255
  1602  000E33  FF                 	db	255
  1603  000E34  FF                 	db	255
  1604  000E35  FF                 	db	255
  1605  000E36  FF                 	db	255
  1606  000E37  FF                 	db	255
  1607  000E38  FF                 	db	255
  1608  000E39  21                 	db	33
  1609  000E3A  21                 	db	33
  1610  000E3B  21                 	db	33
  1611  000E3C  3F                 	db	63
  1612  000E3D  3F                 	db	63
  1613  000E3E  3F                 	db	63
  1614  000E3F  3F                 	db	63
  1615  000E40  7C                 	db	124
  1616  000E41  21                 	db	33
  1617  000E42  21                 	db	33
  1618  000E43  21                 	db	33
  1619  000E44  21                 	db	33
  1620  000E45  21                 	db	33
  1621  000E46  4F                 	db	79
  1622  000E47  4F                 	db	79
  1623  000E48  4F                 	db	79
  1624  000E49  3F                 	db	63
  1625  000E4A  3F                 	db	63
  1626  000E4B  3F                 	db	63
  1627  000E4C  4F                 	db	79
  1628  000E4D  4F                 	db	79
  1629  000E4E  4F                 	db	79
  1630  000E4F  4F                 	db	79
  1631  000E50  4F                 	db	79
  1632  000E51  4F                 	db	79
  1633  000E52  4F                 	db	79
  1634  000E53  4F                 	db	79
  1635  000E54  4F                 	db	79
  1636  000E55  3F                 	db	63
  1637  000E56  3F                 	db	63
  1638  000E57  3F                 	db	63
  1639  000E58  4F                 	db	79
  1640  000E59  4F                 	db	79
  1641  000E5A  4F                 	db	79
  1642  000E5B  4F                 	db	79
  1643  000E5C  4F                 	db	79
  1644  000E5D  4F                 	db	79
  1645  000E5E  21                 	db	33
  1646  000E5F  21                 	db	33
  1647  000E60  21                 	db	33
  1648  000E61  21                 	db	33
  1649  000E62  21                 	db	33
  1650  000E63  21                 	db	33
  1651  000E64  21                 	db	33
  1652  000E65  21                 	db	33
  1653  000E66  21                 	db	33
  1654  000E67  21                 	db	33
  1655  000E68  21                 	db	33
  1656  000E69  21                 	db	33
  1657  000E6A  6B                 	db	107
  1658  000E6B  6D                 	db	109
  1659  000E6C  6D                 	db	109
  1660  000E6D  6B                 	db	107
  1661  000E6E  6D                 	db	109
  1662  000E6F  6D                 	db	109
  1663  000E70  FF                 	db	255
  1664  000E71  FF                 	db	255
  1665  000E72  FF                 	db	255
  1666  000E73  FF                 	db	255
  1667  000E74  FF                 	db	255
  1668  000E75  FF                 	db	255
  1669  000E76  FF                 	db	255
  1670  000E77  FF                 	db	255
  1671  000E78  FF                 	db	255
  1672  000E79  FF                 	db	255
  1673  000E7A  FF                 	db	255
  1674  000E7B  FF                 	db	255
  1675  000E7C  FF                 	db	255
  1676  000E7D  FF                 	db	255
  1677  000E7E  FF                 	db	255
  1678  000E7F  FF                 	db	255
  1679  000E80  FF                 	db	255
  1680  000E81  FF                 	db	255
  1681  000E82  FF                 	db	255
  1682  000E83  FF                 	db	255
  1683  000E84  FF                 	db	255
  1684  000E85  FF                 	db	255
  1685  000E86  FF                 	db	255
  1686  000E87  FF                 	db	255
  1687  000E88  FF                 	db	255
  1688  000E89  FF                 	db	255
  1689  000E8A  FF                 	db	255
  1690  000E8B  FF                 	db	255
  1691  000E8C  FF                 	db	255
  1692  000E8D  FF                 	db	255
  1693  000E8E  FF                 	db	255
  1694  000E8F  FF                 	db	255
  1695  000E90  FF                 	db	255
  1696  000E91  FF                 	db	255
  1697  000E92  FF                 	db	255
  1698  000E93  FF                 	db	255
  1699  000E94  FF                 	db	255
  1700  000E95  FF                 	db	255
  1701  000E96  FF                 	db	255
  1702  000E97  21                 	db	33
  1703  000E98  21                 	db	33
  1704  000E99  21                 	db	33
  1705  000E9A  4F                 	db	79
  1706  000E9B  4F                 	db	79
  1707  000E9C  4F                 	db	79
  1708  000E9D  4F                 	db	79
  1709  000E9E  4F                 	db	79
  1710  000E9F  4F                 	db	79
  1711  000EA0  4F                 	db	79
  1712  000EA1  4F                 	db	79
  1713  000EA2  4F                 	db	79
  1714  000EA3  21                 	db	33
  1715  000EA4  21                 	db	33
  1716  000EA5  21                 	db	33
  1717  000EA6  21                 	db	33
  1718  000EA7  21                 	db	33
  1719  000EA8  21                 	db	33
  1720  000EA9  21                 	db	33
  1721  000EAA  21                 	db	33
  1722  000EAB  21                 	db	33
  1723  000EAC  21                 	db	33
  1724  000EAD  21                 	db	33
  1725  000EAE  21                 	db	33
  1726  000EAF  21                 	db	33
  1727  000EB0  21                 	db	33
  1728  000EB1  21                 	db	33
  1729  000EB2  21                 	db	33
  1730  000EB3  21                 	db	33
  1731  000EB4  21                 	db	33
  1732  000EB5  21                 	db	33
  1733  000EB6  21                 	db	33
  1734  000EB7  21                 	db	33
  1735  000EB8  21                 	db	33
  1736  000EB9  21                 	db	33
  1737  000EBA  21                 	db	33
  1738  000EBB  21                 	db	33
  1739  000EBC  21                 	db	33
  1740  000EBD  21                 	db	33
  1741  000EBE  4F                 	db	79
  1742  000EBF  4F                 	db	79
  1743  000EC0  4F                 	db	79
  1744  000EC1  4F                 	db	79
  1745  000EC2  4F                 	db	79
  1746  000EC3  4F                 	db	79
  1747  000EC4  21                 	db	33
  1748  000EC5  21                 	db	33
  1749  000EC6  21                 	db	33
  1750  000EC7  4F                 	db	79
  1751  000EC8  4F                 	db	79
  1752  000EC9  4F                 	db	79
  1753  000ECA  21                 	db	33
  1754  000ECB  21                 	db	33
  1755  000ECC  21                 	db	33
  1756  000ECD  21                 	db	33
  1757  000ECE  21                 	db	33
  1758  000ECF  21                 	db	33
  1759  000ED0  FF                 	db	255
  1760  000ED1  FF                 	db	255
  1761  000ED2  FF                 	db	255
  1762  000ED3  FF                 	db	255
  1763  000ED4  FF                 	db	255
  1764  000ED5  FF                 	db	255
  1765  000ED6  FF                 	db	255
  1766  000ED7  FF                 	db	255
  1767  000ED8  FF                 	db	255
  1768  000ED9  FF                 	db	255
  1769  000EDA  FF                 	db	255
  1770  000EDB  FF                 	db	255
  1771  000EDC  FF                 	db	255
  1772  000EDD  FF                 	db	255
  1773  000EDE  FF                 	db	255
  1774  000EDF  FF                 	db	255
  1775  000EE0  FF                 	db	255
  1776  000EE1  FF                 	db	255
  1777  000EE2  FF                 	db	255
  1778  000EE3  FF                 	db	255
  1779  000EE4  FF                 	db	255
  1780  000EE5  FF                 	db	255
  1781  000EE6  FF                 	db	255
  1782  000EE7  FF                 	db	255
  1783  000EE8  FF                 	db	255
  1784  000EE9  FF                 	db	255
  1785  000EEA  FF                 	db	255
  1786  000EEB  FF                 	db	255
  1787  000EEC  FF                 	db	255
  1788  000EED  FF                 	db	255
  1789  000EEE  FF                 	db	255
  1790  000EEF  FF                 	db	255
  1791  000EF0  FF                 	db	255
  1792  000EF1  FF                 	db	255
  1793  000EF2  FF                 	db	255
  1794  000EF3  FF                 	db	255
  1795  000EF4  FF                 	db	255
  1796  000EF5  FF                 	db	255
  1797  000EF6  FF                 	db	255
  1798  000EF7  21                 	db	33
  1799  000EF8  21                 	db	33
  1800  000EF9  21                 	db	33
  1801  000EFA  4F                 	db	79
  1802  000EFB  4F                 	db	79
  1803  000EFC  4F                 	db	79
  1804  000EFD  4F                 	db	79
  1805  000EFE  4F                 	db	79
  1806  000EFF  4F                 	db	79
  1807  000F00  4F                 	db	79
  1808  000F01  4F                 	db	79
  1809  000F02  4F                 	db	79
  1810  000F03  6B                 	db	107
  1811  000F04  6D                 	db	109
  1812  000F05  6D                 	db	109
  1813  000F06  21                 	db	33
  1814  000F07  21                 	db	33
  1815  000F08  21                 	db	33
  1816  000F09  4F                 	db	79
  1817  000F0A  4F                 	db	79
  1818  000F0B  4F                 	db	79
  1819  000F0C  21                 	db	33
  1820  000F0D  21                 	db	33
  1821  000F0E  21                 	db	33
  1822  000F0F  21                 	db	33
  1823  000F10  21                 	db	33
  1824  000F11  21                 	db	33
  1825  000F12  21                 	db	33
  1826  000F13  21                 	db	33
  1827  000F14  21                 	db	33
  1828  000F15  21                 	db	33
  1829  000F16  21                 	db	33
  1830  000F17  21                 	db	33
  1831  000F18  21                 	db	33
  1832  000F19  21                 	db	33
  1833  000F1A  21                 	db	33
  1834  000F1B  21                 	db	33
  1835  000F1C  21                 	db	33
  1836  000F1D  21                 	db	33
  1837  000F1E  6B                 	db	107
  1838  000F1F  6D                 	db	109
  1839  000F20  6D                 	db	109
  1840  000F21  4F                 	db	79
  1841  000F22  4F                 	db	79
  1842  000F23  4F                 	db	79
  1843  000F24  4F                 	db	79
  1844  000F25  4F                 	db	79
  1845  000F26  4F                 	db	79
  1846  000F27  4F                 	db	79
  1847  000F28  4F                 	db	79
  1848  000F29  4F                 	db	79
  1849  000F2A  4F                 	db	79
  1850  000F2B  4F                 	db	79
  1851  000F2C  4F                 	db	79
  1852  000F2D  FF                 	db	255
  1853  000F2E  FF                 	db	255
  1854  000F2F  FF                 	db	255
  1855  000F30  FF                 	db	255
  1856  000F31  FF                 	db	255
  1857  000F32  FF                 	db	255
  1858  000F33  FF                 	db	255
  1859  000F34  FF                 	db	255
  1860  000F35  FF                 	db	255
  1861  000F36  FF                 	db	255
  1862  000F37  FF                 	db	255
  1863  000F38  FF                 	db	255
  1864  000F39  FF                 	db	255
  1865  000F3A  FF                 	db	255
  1866  000F3B  FF                 	db	255
  1867  000F3C  FF                 	db	255
  1868  000F3D  FF                 	db	255
  1869  000F3E  FF                 	db	255
  1870  000F3F  FF                 	db	255
  1871  000F40  FF                 	db	255
  1872  000F41  FF                 	db	255
  1873  000F42  FF                 	db	255
  1874  000F43  FF                 	db	255
  1875  000F44  FF                 	db	255
  1876  000F45  FF                 	db	255
  1877  000F46  FF                 	db	255
  1878  000F47  FF                 	db	255
  1879  000F48  FF                 	db	255
  1880  000F49  FF                 	db	255
  1881  000F4A  FF                 	db	255
  1882  000F4B  FF                 	db	255
  1883  000F4C  FF                 	db	255
  1884  000F4D  FF                 	db	255
  1885  000F4E  FF                 	db	255
  1886  000F4F  FF                 	db	255
  1887  000F50  FF                 	db	255
  1888  000F51  FF                 	db	255
  1889  000F52  FF                 	db	255
  1890  000F53  FF                 	db	255
  1891  000F54  21                 	db	33
  1892  000F55  21                 	db	33
  1893  000F56  21                 	db	33
  1894  000F57  21                 	db	33
  1895  000F58  21                 	db	33
  1896  000F59  21                 	db	33
  1897  000F5A  4F                 	db	79
  1898  000F5B  4F                 	db	79
  1899  000F5C  4F                 	db	79
  1900  000F5D  4F                 	db	79
  1901  000F5E  4F                 	db	79
  1902  000F5F  4F                 	db	79
  1903  000F60  4F                 	db	79
  1904  000F61  4F                 	db	79
  1905  000F62  4F                 	db	79
  1906  000F63  6B                 	db	107
  1907  000F64  6D                 	db	109
  1908  000F65  6D                 	db	109
  1909  000F66  21                 	db	33
  1910  000F67  21                 	db	33
  1911  000F68  21                 	db	33
  1912  000F69  4F                 	db	79
  1913  000F6A  4F                 	db	79
  1914  000F6B  4F                 	db	79
  1915  000F6C  FF                 	db	255
  1916  000F6D  23                 	db	35
  1917  000F6E  21                 	db	33
  1918  000F6F  21                 	db	33
  1919  000F70  21                 	db	33
  1920  000F71  21                 	db	33
  1921  000F72  21                 	db	33
  1922  000F73  21                 	db	33
  1923  000F74  21                 	db	33
  1924  000F75  21                 	db	33
  1925  000F76  21                 	db	33
  1926  000F77  21                 	db	33
  1927  000F78  21                 	db	33
  1928  000F79  21                 	db	33
  1929  000F7A  21                 	db	33
  1930  000F7B  21                 	db	33
  1931  000F7C  21                 	db	33
  1932  000F7D  6B                 	db	107
  1933  000F7E  6D                 	db	109
  1934  000F7F  6D                 	db	109
  1935  000F80  21                 	db	33
  1936  000F81  21                 	db	33
  1937  000F82  21                 	db	33
  1938  000F83  4F                 	db	79
  1939  000F84  4F                 	db	79
  1940  000F85  4F                 	db	79
  1941  000F86  4F                 	db	79
  1942  000F87  4F                 	db	79
  1943  000F88  4F                 	db	79
  1944  000F89  21                 	db	33
  1945  000F8A  21                 	db	33
  1946  000F8B  21                 	db	33
  1947  000F8C  FF                 	db	255
  1948  000F8D  FF                 	db	255
  1949  000F8E  FF                 	db	255
  1950  000F8F  FF                 	db	255
  1951  000F90  FF                 	db	255
  1952  000F91  FF                 	db	255
  1953  000F92  FF                 	db	255
  1954  000F93  FF                 	db	255
  1955  000F94  FF                 	db	255
  1956  000F95  FF                 	db	255
  1957  000F96  FF                 	db	255
  1958  000F97  FF                 	db	255
  1959  000F98  FF                 	db	255
  1960  000F99  FF                 	db	255
  1961  000F9A  FF                 	db	255
  1962  000F9B  FF                 	db	255
  1963  000F9C  FF                 	db	255
  1964  000F9D  FF                 	db	255
  1965  000F9E  FF                 	db	255
  1966  000F9F  FF                 	db	255
  1967  000FA0  FF                 	db	255
  1968  000FA1  FF                 	db	255
  1969  000FA2  FF                 	db	255
  1970  000FA3  FF                 	db	255
  1971  000FA4  FF                 	db	255
  1972  000FA5  FF                 	db	255
  1973  000FA6  FF                 	db	255
  1974  000FA7  FF                 	db	255
  1975  000FA8  FF                 	db	255
  1976  000FA9  FF                 	db	255
  1977  000FAA  FF                 	db	255
  1978  000FAB  FF                 	db	255
  1979  000FAC  FF                 	db	255
  1980  000FAD  FF                 	db	255
  1981  000FAE  FF                 	db	255
  1982  000FAF  FF                 	db	255
  1983  000FB0  FF                 	db	255
  1984  000FB1  FF                 	db	255
  1985  000FB2  FF                 	db	255
  1986  000FB3  21                 	db	33
  1987  000FB4  21                 	db	33
  1988  000FB5  21                 	db	33
  1989  000FB6  21                 	db	33
  1990  000FB7  21                 	db	33
  1991  000FB8  21                 	db	33
  1992  000FB9  6B                 	db	107
  1993  000FBA  6D                 	db	109
  1994  000FBB  6D                 	db	109
  1995  000FBC  21                 	db	33
  1996  000FBD  21                 	db	33
  1997  000FBE  21                 	db	33
  1998  000FBF  21                 	db	33
  1999  000FC0  21                 	db	33
  2000  000FC1  21                 	db	33
  2001  000FC2  21                 	db	33
  2002  000FC3  21                 	db	33
  2003  000FC4  21                 	db	33
  2004  000FC5  21                 	db	33
  2005  000FC6  21                 	db	33
  2006  000FC7  21                 	db	33
  2007  000FC8  4F                 	db	79
  2008  000FC9  4F                 	db	79
  2009  000FCA  4F                 	db	79
  2010  000FCB  21                 	db	33
  2011  000FCC  21                 	db	33
  2012  000FCD  21                 	db	33
  2013  000FCE  21                 	db	33
  2014  000FCF  21                 	db	33
  2015  000FD0  21                 	db	33
  2016  000FD1  21                 	db	33
  2017  000FD2  21                 	db	33
  2018  000FD3  21                 	db	33
  2019  000FD4  21                 	db	33
  2020  000FD5  21                 	db	33
  2021  000FD6  21                 	db	33
  2022  000FD7  21                 	db	33
  2023  000FD8  21                 	db	33
  2024  000FD9  21                 	db	33
  2025  000FDA  21                 	db	33
  2026  000FDB  21                 	db	33
  2027  000FDC  21                 	db	33
  2028  000FDD  00                 	db	0
  2029  000FDE  00                 	db	0
  2030  000FDF  00                 	db	0
  2031  000FE0  00                 	db	0
  2032  000FE1  00                 	db	0
  2033  000FE2  00                 	db	0
  2034  000FE3  00                 	db	0
  2035  000FE4  00                 	db	0
  2036  000FE5  00                 	db	0
  2037  000FE6  00                 	db	0
  2038  000FE7  00                 	db	0
  2039  000FE8  00                 	db	0
  2040  000FE9  00                 	db	0
  2041  000FEA  00                 	db	0
  2042  000FEB  00                 	db	0
  2043  000FEC  00                 	db	0
  2044  000FED  00                 	db	0
  2045  000FEE  00                 	db	0
  2046  000FEF  00                 	db	0
  2047  000FF0  00                 	db	0
  2048  000FF1  00                 	db	0
  2049  000FF2  00                 	db	0
  2050  000FF3  00                 	db	0
  2051  000FF4  00                 	db	0
  2052  000FF5  00                 	db	0
  2053  000FF6  00                 	db	0
  2054  000FF7  00                 	db	0
  2055                           
  2056                           	psect	smallconst
  2057  000800                     __psmallconst:
  2058                           	opt stack 0
  2059  000800  00                 	db	0
  2060  000801                     _dpowers:
  2061                           	opt stack 0
  2062  000801  0001               	dw	1
  2063  000803  000A               	dw	10
  2064  000805  0064               	dw	100
  2065  000807  03E8               	dw	1000
  2066  000809  2710               	dw	10000
  2067  00080B                     __end_of_dpowers:
  2068                           	opt stack 0
  2069  0000                     _PIR1bits	set	3998
  2070  0000                     _SPBRG	set	4015
  2071  0000                     _TXREG	set	4013
  2072  0000                     _CREN	set	32092
  2073  0000                     _SPEN	set	32095
  2074  0000                     _SYNC	set	32100
  2075  0000                     _TRISC6	set	31910
  2076  0000                     _TRISC7	set	31911
  2077  0000                     _TXEN	set	32101
  2078  00080B                     STR_1:
  2079  00080B  44                 	db	68	;'D'
  2080  00080C  65                 	db	101	;'e'
  2081  00080D  63                 	db	99	;'c'
  2082  00080E  6F                 	db	111	;'o'
  2083  00080F  64                 	db	100	;'d'
  2084  000810  65                 	db	101	;'e'
  2085  000811  20                 	db	32
  2086  000812  6D                 	db	109	;'m'
  2087  000813  65                 	db	101	;'e'
  2088  000814  73                 	db	115	;'s'
  2089  000815  73                 	db	115	;'s'
  2090  000816  61                 	db	97	;'a'
  2091  000817  67                 	db	103	;'g'
  2092  000818  65                 	db	101	;'e'
  2093  000819  00                 	db	0
  2094  00081A                     STR_3:
  2095  00081A  43                 	db	67	;'C'
  2096  00081B  4F                 	db	79	;'O'
  2097  00081C  4D                 	db	77	;'M'
  2098  00081D  45                 	db	69	;'E'
  2099  00081E  43                 	db	67	;'C'
  2100  00081F  4F                 	db	79	;'O'
  2101  000820  55                 	db	85	;'U'
  2102  000821  00                 	db	0
  2103  000822                     STR_4:
  2104  000822  41                 	db	65	;'A'
  2105  000823  43                 	db	67	;'C'
  2106  000824  41                 	db	65	;'A'
  2107  000825  42                 	db	66	;'B'
  2108  000826  4F                 	db	79	;'O'
  2109  000827  55                 	db	85	;'U'
  2110  000828  00                 	db	0
  2111  000829                     STR_7:
  2112  000829  25                 	db	37
  2113  00082A  63                 	db	99	;'c'
  2114  00082B  00                 	db	0
  2115  00082C                     STR_2:
  2116  00082C  25                 	db	37
  2117  00082D  64                 	db	100	;'d'
  2118  00082E  00                 	db	0
  2119  0000                     
  2120                           ; #config settings
  2121  00082F  00                 	db	0	; dummy byte at the end
  2122  0000                     
  2123                           	psect	cinit
  2124  0014A6                     __pcinit:
  2125                           	opt stack 0
  2126  0014A6                     start_initialization:
  2127                           	opt stack 0
  2128  0014A6                     __initialization:
  2129                           	opt stack 0
  2130                           
  2131                           ; Initialize objects allocated to BIGRAM (1992 bytes)
  2132                           ; load TBLPTR registers with __pidataBIGRAM
  2133  0014A6  0E30               	movlw	low __pidataBIGRAM
  2134  0014A8  6EF6               	movwf	tblptrl,c
  2135  0014AA  0E08               	movlw	high __pidataBIGRAM
  2136  0014AC  6EF7               	movwf	tblptrh,c
  2137  0014AE  0E00               	movlw	low (__pidataBIGRAM shr (0+16))
  2138  0014B0  6EF8               	movwf	tblptru,c
  2139  0014B2  EE00  F038         	lfsr	0,__pdataBIGRAM
  2140  0014B6  EE17 F0C8          	lfsr	1,1992
  2141  0014BA                     copy_data0:
  2142  0014BA  0009               	tblrd		*+
  2143  0014BC  CFF5 FFEE          	movff	tablat,postinc0
  2144  0014C0  50E5               	movf	postdec1,w,c
  2145  0014C2  50E1               	movf	fsr1l,w,c
  2146  0014C4  E1FA               	bnz	copy_data0
  2147  0014C6  50E2               	movf	fsr1h,w,c
  2148  0014C8  E1F8               	bnz	copy_data0
  2149  0014CA                     end_of_initialization:
  2150                           	opt stack 0
  2151  0014CA                     __end_of__initialization:
  2152                           	opt stack 0
  2153  0014CA  0E00               	movlw	low (__Lmediumconst shr (0+16))
  2154  0014CC  6EF8               	movwf	tblptru,c
  2155  0014CE  0100               	movlb	0
  2156  0014D0  EF18  F00A         	goto	_main	;jump to C main() function
  2157                           tblptru	equ	0xFF8
  2158                           tblptrh	equ	0xFF7
  2159                           tblptrl	equ	0xFF6
  2160                           tablat	equ	0xFF5
  2161                           postinc0	equ	0xFEE
  2162                           postdec1	equ	0xFE5
  2163                           fsr1h	equ	0xFE2
  2164                           fsr1l	equ	0xFE1
  2165                           
  2166                           	psect	dataBIGRAM
  2167  000038                     __pdataBIGRAM:
  2168                           	opt stack 0
  2169  000038                     main@fileCharsEncoded:
  2170                           	opt stack 0
  2171  000038                     	ds	1992
  2172                           tblptru	equ	0xFF8
  2173                           tblptrh	equ	0xFF7
  2174                           tblptrl	equ	0xFF6
  2175                           tablat	equ	0xFF5
  2176                           postinc0	equ	0xFEE
  2177                           postdec1	equ	0xFE5
  2178                           fsr1h	equ	0xFE2
  2179                           fsr1l	equ	0xFE1
  2180                           
  2181                           	psect	cstackCOMRAM
  2182  000001                     __pcstackCOMRAM:
  2183                           	opt stack 0
  2184  000001                     ?_strlen:
  2185                           	opt stack 0
  2186  000001                     ?___lwdiv:
  2187                           	opt stack 0
  2188  000001                     ?___aldiv:
  2189                           	opt stack 0
  2190  000001                     putch@data:
  2191                           	opt stack 0
  2192  000001                     ___lwdiv@dividend:
  2193                           	opt stack 0
  2194  000001                     strlen@s:
  2195                           	opt stack 0
  2196  000001                     ___aldiv@dividend:
  2197                           	opt stack 0
  2198                           
  2199                           ; 4 bytes @ 0x0
  2200  000001                     	ds	2
  2201  000003                     ??_strlen:
  2202  000003                     ___lwdiv@divisor:
  2203                           	opt stack 0
  2204                           
  2205                           ; 2 bytes @ 0x2
  2206  000003                     	ds	2
  2207  000005                     ___lwdiv@quotient:
  2208                           	opt stack 0
  2209  000005                     strlen@cp:
  2210                           	opt stack 0
  2211  000005                     ___aldiv@divisor:
  2212                           	opt stack 0
  2213                           
  2214                           ; 4 bytes @ 0x4
  2215  000005                     	ds	2
  2216  000007                     ___lwdiv@counter:
  2217                           	opt stack 0
  2218                           
  2219                           ; 1 bytes @ 0x6
  2220  000007                     	ds	1
  2221  000008                     ?___lwmod:
  2222                           	opt stack 0
  2223  000008                     ___lwmod@dividend:
  2224                           	opt stack 0
  2225                           
  2226                           ; 2 bytes @ 0x7
  2227  000008                     	ds	1
  2228  000009                     ___aldiv@counter:
  2229                           	opt stack 0
  2230                           
  2231                           ; 1 bytes @ 0x8
  2232  000009                     	ds	1
  2233  00000A                     ___aldiv@sign:
  2234                           	opt stack 0
  2235  00000A                     ___lwmod@divisor:
  2236                           	opt stack 0
  2237                           
  2238                           ; 2 bytes @ 0x9
  2239  00000A                     	ds	1
  2240  00000B                     ___aldiv@quotient:
  2241                           	opt stack 0
  2242                           
  2243                           ; 4 bytes @ 0xA
  2244  00000B                     	ds	1
  2245  00000C                     ___lwmod@counter:
  2246                           	opt stack 0
  2247                           
  2248                           ; 1 bytes @ 0xB
  2249  00000C                     	ds	1
  2250  00000D                     ?_printf:
  2251                           	opt stack 0
  2252  00000D                     printf@f:
  2253                           	opt stack 0
  2254                           
  2255                           ; 2 bytes @ 0xC
  2256  00000D                     	ds	2
  2257  00000F                     UART_Init@baudrate:
  2258                           	opt stack 0
  2259                           
  2260                           ; 4 bytes @ 0xE
  2261  00000F                     	ds	2
  2262  000011                     ??_printf:
  2263                           
  2264                           ; 1 bytes @ 0x10
  2265  000011                     	ds	1
  2266  000012                     printf@flag:
  2267                           	opt stack 0
  2268                           
  2269                           ; 1 bytes @ 0x11
  2270  000012                     	ds	1
  2271  000013                     printf@prec:
  2272                           	opt stack 0
  2273  000013                     _UART_Init$688:
  2274                           	opt stack 0
  2275                           
  2276                           ; 4 bytes @ 0x12
  2277  000013                     	ds	1
  2278  000014                     printf@ap:
  2279                           	opt stack 0
  2280                           
  2281                           ; 2 bytes @ 0x13
  2282  000014                     	ds	2
  2283  000016                     printf@val:
  2284                           	opt stack 0
  2285                           
  2286                           ; 2 bytes @ 0x15
  2287  000016                     	ds	1
  2288  000017                     UART_Init@x:
  2289                           	opt stack 0
  2290                           
  2291                           ; 2 bytes @ 0x16
  2292  000017                     	ds	1
  2293  000018                     printf@c:
  2294                           	opt stack 0
  2295                           
  2296                           ; 1 bytes @ 0x17
  2297  000018                     	ds	1
  2298  000019                     decode_message@fileChars:
  2299                           	opt stack 0
  2300                           
  2301                           ; 2 bytes @ 0x18
  2302  000019                     	ds	2
  2303  00001B                     decode_message@length:
  2304                           	opt stack 0
  2305                           
  2306                           ; 2 bytes @ 0x1A
  2307  00001B                     	ds	2
  2308  00001D                     ??_decode_message:
  2309                           
  2310                           ; 1 bytes @ 0x1C
  2311  00001D                     	ds	2
  2312  00001F                     decode_message@secret_message:
  2313                           	opt stack 0
  2314                           
  2315                           ; 5 bytes @ 0x1E
  2316  00001F                     	ds	5
  2317  000024                     decode_message@idx:
  2318                           	opt stack 0
  2319                           
  2320                           ; 2 bytes @ 0x23
  2321  000024                     	ds	2
  2322  000026                     decode_message@readTo:
  2323                           	opt stack 0
  2324                           
  2325                           ; 2 bytes @ 0x25
  2326  000026                     	ds	2
  2327  000028                     decode_message@fileSize:
  2328                           	opt stack 0
  2329                           
  2330                           ; 2 bytes @ 0x27
  2331  000028                     	ds	2
  2332  00002A                     decode_message@temp:
  2333                           	opt stack 0
  2334                           
  2335                           ; 1 bytes @ 0x29
  2336  00002A                     	ds	1
  2337  00002B                     decode_message@charBuffer:
  2338                           	opt stack 0
  2339                           
  2340                           ; 1 bytes @ 0x2A
  2341  00002B                     	ds	1
  2342  00002C                     decode_message@i:
  2343                           	opt stack 0
  2344                           
  2345                           ; 2 bytes @ 0x2B
  2346  00002C                     	ds	2
  2347  00002E                     decode_message@numRead:
  2348                           	opt stack 0
  2349                           
  2350                           ; 2 bytes @ 0x2D
  2351  00002E                     	ds	2
  2352  000030                     tblptru	equ	0xFF8
  2353                           tblptrh	equ	0xFF7
  2354                           tblptrl	equ	0xFF6
  2355                           tablat	equ	0xFF5
  2356                           postinc0	equ	0xFEE
  2357                           postdec1	equ	0xFE5
  2358                           fsr1h	equ	0xFE2
  2359                           fsr1l	equ	0xFE1
  2360                           
  2361                           ; 1 bytes @ 0x2F
  2362 ;;
  2363 ;;Main: autosize = 0, tempsize = 0, incstack = 0, save=0
  2364 ;;
  2365 ;; *************** function _main *****************
  2366 ;; Defined at:
  2367 ;;		line 54 in file "readWriteMsg.c"
  2368 ;; Parameters:    Size  Location     Type
  2369 ;;		None
  2370 ;; Auto vars:     Size  Location     Type
  2371 ;;		None
  2372 ;; Return value:  Size  Location     Type
  2373 ;;                  2   38[None  ] int 
  2374 ;; Registers used:
  2375 ;;		wreg, fsr2l, fsr2h, status,2, status,0, tblptrl, tblptrh, tblptru, prodl, prodh, cstack
  2376 ;; Tracked objects:
  2377 ;;		On entry : 0/0
  2378 ;;		On exit  : 0/0
  2379 ;;		Unchanged: 0/0
  2380 ;; Data sizes:     COMRAM   BANK0   BANK1   BANK2   BANK3   BANK4   BANK5   BANK6   BANK7
  2381 ;;      Params:         0       0       0       0       0       0       0       0       0
  2382 ;;      Locals:         0       0       0       0       0       0       0       0       0
  2383 ;;      Temps:          0       0       0       0       0       0       0       0       0
  2384 ;;      Totals:         0       0       0       0       0       0       0       0       0
  2385 ;;Total ram usage:        0 bytes
  2386 ;; Hardware stack levels required when called:    3
  2387 ;; This function calls:
  2388 ;;		_UART_Init
  2389 ;;		_UART_Stop
  2390 ;;		_decode_message
  2391 ;;		_printf
  2392 ;; This function is called by:
  2393 ;;		Startup code after reset
  2394 ;; This function uses a non-reentrant model
  2395 ;;
  2396                           
  2397                           	psect	text0
  2398  001430                     __ptext0:
  2399                           	opt stack 0
  2400  001430                     _main:
  2401                           	opt stack 28
  2402                           
  2403                           ;readWriteMsg.c: 55: UART_Init(9600);
  2404                           
  2405                           ;incstack = 0
  2406  001430  0E80               	movlw	128
  2407  001432  6E0F               	movwf	UART_Init@baudrate,c
  2408  001434  0E25               	movlw	37
  2409  001436  6E10               	movwf	UART_Init@baudrate+1,c
  2410  001438  0E00               	movlw	0
  2411  00143A  6E11               	movwf	UART_Init@baudrate+2,c
  2412  00143C  0E00               	movlw	0
  2413  00143E  6E12               	movwf	UART_Init@baudrate+3,c
  2414  001440  EC93  F009         	call	_UART_Init	;wreg free
  2415                           
  2416                           ;readWriteMsg.c: 63: static unsigned char fileCharsEncoded[1992] = "þÿÿÿþÿþþþÿÿþþÿþÿþÿÿÿ
      +                          þþÿÿþÿÿÿþÿþþþÿÿþþÿþÿþþþþþþþþþþÿþþÿþÿþÿÿþþþÿÿþþþþþþþþþþÿþþÿþÿþÿÿÿþþÿÿþþþþþþþþþþÿþþÿþÿþÿÿþ
      +                          þÿþþþþþþþþþþþþþþþþþþÿÿÿÿÿÿÿÿÿÿÿÿÿÿÿÿ!!!³³³³³³³³³!!!³³³!!!ÿÿÿÿÿÿÿÿÿÿÿÿÿÿÿÿÿÿÿÿÿÿÿÿÿÿÿÿÿÿÿ
      +                          ÿÿÿÿÿÿÿ
  2417                           ;readWriteMsg.c: 73: printf("Decode message");
  2418  001444  0E0B               	movlw	low STR_1
  2419  001446  6E0D               	movwf	printf@f,c
  2420  001448  0E08               	movlw	high STR_1
  2421  00144A  6E0E               	movwf	printf@f+1,c
  2422  00144C  ECFC  F007         	call	_printf	;wreg free
  2423                           
  2424                           ;readWriteMsg.c: 76: decode_message(fileCharsEncoded, 5);
  2425  001450  0E38               	movlw	low main@fileCharsEncoded
  2426  001452  6E19               	movwf	decode_message@fileChars,c
  2427  001454  0E00               	movlw	high main@fileCharsEncoded
  2428  001456  6E1A               	movwf	decode_message@fileChars+1,c
  2429  001458  0E00               	movlw	0
  2430  00145A  6E1C               	movwf	decode_message@length+1,c
  2431  00145C  0E05               	movlw	5
  2432  00145E  6E1B               	movwf	decode_message@length,c
  2433  001460  EC9D  F008         	call	_decode_message	;wreg free
  2434                           
  2435                           ;readWriteMsg.c: 78: UART_Stop();
  2436  001464  EC6A  F00A         	call	_UART_Stop	;wreg free
  2437                           
  2438                           ;readWriteMsg.c: 79: return 0;
  2439                           ;	Return value of _main is never used
  2440  001468  EF00  F000         	goto	start
  2441  00146C                     __end_of_main:
  2442                           	opt stack 0
  2443                           tblptru	equ	0xFF8
  2444                           tblptrh	equ	0xFF7
  2445                           tblptrl	equ	0xFF6
  2446                           tablat	equ	0xFF5
  2447                           postinc0	equ	0xFEE
  2448                           postdec1	equ	0xFE5
  2449                           fsr1h	equ	0xFE2
  2450                           fsr1l	equ	0xFE1
  2451                           
  2452 ;; *************** function _decode_message *****************
  2453 ;; Defined at:
  2454 ;;		line 125 in file "readWriteMsg.c"
  2455 ;; Parameters:    Size  Location     Type
  2456 ;;  fileChars       2   24[COMRAM] PTR unsigned char 
  2457 ;;		 -> main@fileCharsEncoded(1992), 
  2458 ;;  length          2   26[COMRAM] int 
  2459 ;; Auto vars:     Size  Location     Type
  2460 ;;  secret_messa    5   30[COMRAM] unsigned char [5]
  2461 ;;  numRead         2   45[COMRAM] int 
  2462 ;;  i               2   43[COMRAM] int 
  2463 ;;  fileSize        2   39[COMRAM] int 
  2464 ;;  readTo          2   37[COMRAM] int 
  2465 ;;  idx             2   35[COMRAM] int 
  2466 ;;  charBuffer      1   42[COMRAM] unsigned char 
  2467 ;;  temp            1   41[COMRAM] unsigned char 
  2468 ;; Return value:  Size  Location     Type
  2469 ;;                  1    wreg      void 
  2470 ;; Registers used:
  2471 ;;		wreg, fsr2l, fsr2h, status,2, status,0, tblptrl, tblptrh, tblptru, prodl, prodh, cstack
  2472 ;; Tracked objects:
  2473 ;;		On entry : 0/0
  2474 ;;		On exit  : 0/0
  2475 ;;		Unchanged: 0/0
  2476 ;; Data sizes:     COMRAM   BANK0   BANK1   BANK2   BANK3   BANK4   BANK5   BANK6   BANK7
  2477 ;;      Params:         4       0       0       0       0       0       0       0       0
  2478 ;;      Locals:        17       0       0       0       0       0       0       0       0
  2479 ;;      Temps:          2       0       0       0       0       0       0       0       0
  2480 ;;      Totals:        23       0       0       0       0       0       0       0       0
  2481 ;;Total ram usage:       23 bytes
  2482 ;; Hardware stack levels used:    1
  2483 ;; Hardware stack levels required when called:    2
  2484 ;; This function calls:
  2485 ;;		_printf
  2486 ;;		_strlen
  2487 ;; This function is called by:
  2488 ;;		_main
  2489 ;; This function uses a non-reentrant model
  2490 ;;
  2491                           
  2492                           	psect	text1
  2493  00113A                     __ptext1:
  2494                           	opt stack 0
  2495  00113A                     _decode_message:
  2496                           	opt stack 28
  2497                           
  2498                           ;readWriteMsg.c: 126: int readTo = length * 8, numRead = 0, i;
  2499                           
  2500                           ;incstack = 0
  2501  00113A  C01B  F01D         	movff	decode_message@length,??_decode_message
  2502  00113E  C01C  F01E         	movff	decode_message@length+1,??_decode_message+1
  2503  001142  90D8               	bcf	status,0,c
  2504  001144  361D               	rlcf	??_decode_message,f,c
  2505  001146  361E               	rlcf	??_decode_message+1,f,c
  2506  001148  90D8               	bcf	status,0,c
  2507  00114A  361D               	rlcf	??_decode_message,f,c
  2508  00114C  361E               	rlcf	??_decode_message+1,f,c
  2509  00114E  90D8               	bcf	status,0,c
  2510  001150  361D               	rlcf	??_decode_message,f,c
  2511  001152  361E               	rlcf	??_decode_message+1,f,c
  2512  001154  C01D  F026         	movff	??_decode_message,decode_message@readTo
  2513  001158  C01E  F027         	movff	??_decode_message+1,decode_message@readTo+1
  2514  00115C  0E00               	movlw	0
  2515  00115E  6E2F               	movwf	decode_message@numRead+1,c
  2516  001160  0E00               	movlw	0
  2517  001162  6E2E               	movwf	decode_message@numRead,c
  2518                           
  2519                           ;readWriteMsg.c: 127: unsigned char charBuffer = 0;
  2520  001164  0E00               	movlw	0
  2521  001166  6E2B               	movwf	decode_message@charBuffer,c
  2522                           
  2523                           ;readWriteMsg.c: 128: char temp;
  2524                           ;readWriteMsg.c: 129: int idx = 0;
  2525  001168  0E00               	movlw	0
  2526  00116A  6E25               	movwf	decode_message@idx+1,c
  2527  00116C  0E00               	movlw	0
  2528  00116E  6E24               	movwf	decode_message@idx,c
  2529                           
  2530                           ;readWriteMsg.c: 130: char secret_message[5];
  2531                           ;readWriteMsg.c: 132: int fileSize = strlen(fileChars);
  2532  001170  C019  F001         	movff	decode_message@fileChars,strlen@s
  2533  001174  C01A  F002         	movff	decode_message@fileChars+1,strlen@s+1
  2534  001178  EC36  F00A         	call	_strlen	;wreg free
  2535  00117C  C001  F028         	movff	?_strlen,decode_message@fileSize
  2536  001180  C002  F029         	movff	?_strlen+1,decode_message@fileSize+1
  2537                           
  2538                           ;readWriteMsg.c: 134: printf("%d", fileSize);
  2539  001184  0E2C               	movlw	low STR_2
  2540  001186  6E0D               	movwf	printf@f,c
  2541  001188  0E08               	movlw	high STR_2
  2542  00118A  6E0E               	movwf	printf@f+1,c
  2543  00118C  C028  F00F         	movff	decode_message@fileSize,?_printf+2
  2544  001190  C029  F010         	movff	decode_message@fileSize+1,?_printf+3
  2545  001194  ECFC  F007         	call	_printf	;wreg free
  2546                           
  2547                           ;readWriteMsg.c: 135: printf("COMECOU");
  2548  001198  0E1A               	movlw	low STR_3
  2549  00119A  6E0D               	movwf	printf@f,c
  2550  00119C  0E08               	movlw	high STR_3
  2551  00119E  6E0E               	movwf	printf@f+1,c
  2552  0011A0  ECFC  F007         	call	_printf	;wreg free
  2553                           
  2554                           ;readWriteMsg.c: 137: while(numRead <= readTo) {
  2555  0011A4  D038               	goto	l1183
  2556  0011A6                     l1167:
  2557                           
  2558                           ;readWriteMsg.c: 138: temp = fileChars[numRead];
  2559  0011A6  502E               	movf	decode_message@numRead,w,c
  2560  0011A8  2419               	addwf	decode_message@fileChars,w,c
  2561  0011AA  6ED9               	movwf	fsr2l,c
  2562  0011AC  502F               	movf	decode_message@numRead+1,w,c
  2563  0011AE  201A               	addwfc	decode_message@fileChars+1,w,c
  2564  0011B0  6EDA               	movwf	fsr2h,c
  2565  0011B2  50DF               	movf	indf2,w,c
  2566  0011B4  6E2A               	movwf	decode_message@temp,c
  2567                           
  2568                           ;readWriteMsg.c: 139: if(numRead % 8 == 0) {
  2569  0011B6  0E07               	movlw	7
  2570  0011B8  142E               	andwf	decode_message@numRead,w,c
  2571  0011BA  6E1D               	movwf	??_decode_message& (0+255),c
  2572  0011BC  0E00               	movlw	0
  2573  0011BE  142F               	andwf	decode_message@numRead+1,w,c
  2574  0011C0  6E1E               	movwf	(??_decode_message+1)& (0+255),c
  2575  0011C2  501D               	movf	??_decode_message,w,c
  2576  0011C4  101E               	iorwf	??_decode_message+1,w,c
  2577  0011C6  A4D8               	btfss	status,2,c
  2578  0011C8  D00E               	goto	l1177
  2579                           
  2580                           ;readWriteMsg.c: 141: printf("%c", charBuffer);
  2581  0011CA  0E29               	movlw	low STR_7
  2582  0011CC  6E0D               	movwf	printf@f,c
  2583  0011CE  0E08               	movlw	high STR_7
  2584  0011D0  6E0E               	movwf	printf@f+1,c
  2585  0011D2  C02B  F00F         	movff	decode_message@charBuffer,?_printf+2
  2586  0011D6  6A10               	clrf	?_printf+3,c
  2587  0011D8  ECFC  F007         	call	_printf	;wreg free
  2588                           
  2589                           ;readWriteMsg.c: 142: idx++;
  2590  0011DC  4A24               	infsnz	decode_message@idx,f,c
  2591  0011DE  2A25               	incf	decode_message@idx+1,f,c
  2592                           
  2593                           ;readWriteMsg.c: 143: charBuffer = 0;
  2594  0011E0  0E00               	movlw	0
  2595  0011E2  6E2B               	movwf	decode_message@charBuffer,c
  2596                           
  2597                           ;readWriteMsg.c: 144: } else {
  2598  0011E4  D002               	goto	l59
  2599  0011E6                     l1177:
  2600                           
  2601                           ;readWriteMsg.c: 145: charBuffer <<= 1;
  2602  0011E6  90D8               	bcf	status,0,c
  2603  0011E8  362B               	rlcf	decode_message@charBuffer,f,c
  2604  0011EA                     l59:
  2605                           
  2606                           ;readWriteMsg.c: 146: }
  2607                           ;readWriteMsg.c: 147: charBuffer |= (temp & 1);
  2608  0011EA  502A               	movf	decode_message@temp,w,c
  2609  0011EC  0B01               	andlw	1
  2610  0011EE  122B               	iorwf	decode_message@charBuffer,f,c
  2611                           
  2612                           ;readWriteMsg.c: 148: numRead++;
  2613  0011F0  4A2E               	infsnz	decode_message@numRead,f,c
  2614  0011F2  2A2F               	incf	decode_message@numRead+1,f,c
  2615                           
  2616                           ;readWriteMsg.c: 150: printf("%c", secret_message[i]);
  2617  0011F4  0E29               	movlw	low STR_7
  2618  0011F6  6E0D               	movwf	printf@f,c
  2619  0011F8  0E08               	movlw	high STR_7
  2620  0011FA  6E0E               	movwf	printf@f+1,c
  2621  0011FC  0E1F               	movlw	low decode_message@secret_message
  2622  0011FE  242C               	addwf	decode_message@i,w,c
  2623  001200  6ED9               	movwf	fsr2l,c
  2624  001202  0E00               	movlw	high decode_message@secret_message
  2625  001204  202D               	addwfc	decode_message@i+1,w,c
  2626  001206  6EDA               	movwf	fsr2h,c
  2627  001208  50DF               	movf	indf2,w,c
  2628  00120A  6E1D               	movwf	??_decode_message& (0+255),c
  2629  00120C  501D               	movf	??_decode_message,w,c
  2630  00120E  6E0F               	movwf	?_printf+2,c
  2631  001210  6A10               	clrf	?_printf+3,c
  2632  001212  ECFC  F007         	call	_printf	;wreg free
  2633  001216                     l1183:
  2634  001216  502E               	movf	decode_message@numRead,w,c
  2635  001218  5C26               	subwf	decode_message@readTo,w,c
  2636  00121A  5027               	movf	decode_message@readTo+1,w,c
  2637  00121C  0A80               	xorlw	128
  2638  00121E  6E1D               	movwf	??_decode_message& (0+255),c
  2639  001220  502F               	movf	decode_message@numRead+1,w,c
  2640  001222  0A80               	xorlw	128
  2641  001224  581D               	subwfb	??_decode_message& (0+255),w,c
  2642  001226  B0D8               	btfsc	status,0,c
  2643  001228  D7BE               	goto	l1167
  2644                           
  2645                           ;readWriteMsg.c: 151: }
  2646                           ;readWriteMsg.c: 153: for(i=0;i<length;i++) {
  2647  00122A  0E00               	movlw	0
  2648  00122C  6E2D               	movwf	decode_message@i+1,c
  2649  00122E  0E00               	movlw	0
  2650  001230  6E2C               	movwf	decode_message@i,c
  2651  001232  D002               	goto	l1189
  2652  001234                     l1187:
  2653  001234  4A2C               	infsnz	decode_message@i,f,c
  2654  001236  2A2D               	incf	decode_message@i+1,f,c
  2655  001238                     l1189:
  2656  001238  501B               	movf	decode_message@length,w,c
  2657  00123A  5C2C               	subwf	decode_message@i,w,c
  2658  00123C  502D               	movf	decode_message@i+1,w,c
  2659  00123E  0A80               	xorlw	128
  2660  001240  6E1D               	movwf	??_decode_message& (0+255),c
  2661  001242  501C               	movf	decode_message@length+1,w,c
  2662  001244  0A80               	xorlw	128
  2663  001246  581D               	subwfb	??_decode_message& (0+255),w,c
  2664  001248  A0D8               	btfss	status,0,c
  2665  00124A  D7F4               	goto	l1187
  2666                           
  2667                           ;readWriteMsg.c: 156: }
  2668                           ;readWriteMsg.c: 158: printf("ACABOU");
  2669  00124C  0E22               	movlw	low STR_4
  2670  00124E  6E0D               	movwf	printf@f,c
  2671  001250  0E08               	movlw	high STR_4
  2672  001252  6E0E               	movwf	printf@f+1,c
  2673  001254  ECFC  F007         	call	_printf	;wreg free
  2674  001258  0012               	return		;funcret
  2675  00125A                     __end_of_decode_message:
  2676                           	opt stack 0
  2677                           tblptru	equ	0xFF8
  2678                           tblptrh	equ	0xFF7
  2679                           tblptrl	equ	0xFF6
  2680                           tablat	equ	0xFF5
  2681                           postinc0	equ	0xFEE
  2682                           postdec1	equ	0xFE5
  2683                           fsr1h	equ	0xFE2
  2684                           fsr1l	equ	0xFE1
  2685                           indf2	equ	0xFDF
  2686                           fsr2h	equ	0xFDA
  2687                           fsr2l	equ	0xFD9
  2688                           status	equ	0xFD8
  2689                           
  2690 ;; *************** function _strlen *****************
  2691 ;; Defined at:
  2692 ;;		line 4 in file "C:\Program Files (x86)\Microchip\xc8\v1.40\sources\common\strlen.c"
  2693 ;; Parameters:    Size  Location     Type
  2694 ;;  s               2    0[COMRAM] PTR const unsigned char 
  2695 ;;		 -> main@fileCharsEncoded(1992), 
  2696 ;; Auto vars:     Size  Location     Type
  2697 ;;  cp              2    4[COMRAM] PTR const unsigned char 
  2698 ;;		 -> main@fileCharsEncoded(1992), 
  2699 ;; Return value:  Size  Location     Type
  2700 ;;                  2    0[COMRAM] unsigned int 
  2701 ;; Registers used:
  2702 ;;		wreg, fsr2l, fsr2h, status,2, status,0
  2703 ;; Tracked objects:
  2704 ;;		On entry : 0/0
  2705 ;;		On exit  : 0/0
  2706 ;;		Unchanged: 0/0
  2707 ;; Data sizes:     COMRAM   BANK0   BANK1   BANK2   BANK3   BANK4   BANK5   BANK6   BANK7
  2708 ;;      Params:         2       0       0       0       0       0       0       0       0
  2709 ;;      Locals:         2       0       0       0       0       0       0       0       0
  2710 ;;      Temps:          2       0       0       0       0       0       0       0       0
  2711 ;;      Totals:         6       0       0       0       0       0       0       0       0
  2712 ;;Total ram usage:        6 bytes
  2713 ;; Hardware stack levels used:    1
  2714 ;; This function calls:
  2715 ;;		Nothing
  2716 ;; This function is called by:
  2717 ;;		_decode_message
  2718 ;;		_encode_message
  2719 ;; This function uses a non-reentrant model
  2720 ;;
  2721                           
  2722                           	psect	text2
  2723  00146C                     __ptext2:
  2724                           	opt stack 0
  2725  00146C                     _strlen:
  2726                           	opt stack 29
  2727                           
  2728                           ;incstack = 0
  2729  00146C  C001  F005         	movff	strlen@s,strlen@cp
  2730  001470  C002  F006         	movff	strlen@s+1,strlen@cp+1
  2731  001474  D002               	goto	l1087
  2732  001476                     l1085:
  2733  001476  4A05               	infsnz	strlen@cp,f,c
  2734  001478  2A06               	incf	strlen@cp+1,f,c
  2735  00147A                     l1087:
  2736  00147A  C005  FFD9         	movff	strlen@cp,fsr2l
  2737  00147E  C006  FFDA         	movff	strlen@cp+1,fsr2h
  2738  001482  50DF               	movf	indf2,w,c
  2739  001484  A4D8               	btfss	status,2,c
  2740  001486  D7F7               	goto	l1085
  2741  001488  C001  F003         	movff	strlen@s,??_strlen
  2742  00148C  C002  F004         	movff	strlen@s+1,??_strlen+1
  2743  001490  1E03               	comf	??_strlen,f,c
  2744  001492  1E04               	comf	??_strlen+1,f,c
  2745  001494  4A03               	infsnz	??_strlen,f,c
  2746  001496  2A04               	incf	??_strlen+1,f,c
  2747  001498  5005               	movf	strlen@cp,w,c
  2748  00149A  2403               	addwf	??_strlen,w,c
  2749  00149C  6E01               	movwf	?_strlen,c
  2750  00149E  5006               	movf	strlen@cp+1,w,c
  2751  0014A0  2004               	addwfc	??_strlen+1,w,c
  2752  0014A2  6E02               	movwf	?_strlen+1,c
  2753  0014A4  0012               	return	
  2754  0014A6                     __end_of_strlen:
  2755                           	opt stack 0
  2756                           tblptru	equ	0xFF8
  2757                           tblptrh	equ	0xFF7
  2758                           tblptrl	equ	0xFF6
  2759                           tablat	equ	0xFF5
  2760                           postinc0	equ	0xFEE
  2761                           postdec1	equ	0xFE5
  2762                           fsr1h	equ	0xFE2
  2763                           fsr1l	equ	0xFE1
  2764                           indf2	equ	0xFDF
  2765                           fsr2h	equ	0xFDA
  2766                           fsr2l	equ	0xFD9
  2767                           status	equ	0xFD8
  2768                           
  2769 ;; *************** function _printf *****************
  2770 ;; Defined at:
  2771 ;;		line 464 in file "C:\Program Files (x86)\Microchip\xc8\v1.40\sources\common\doprnt.c"
  2772 ;; Parameters:    Size  Location     Type
  2773 ;;  f               2   12[COMRAM] PTR const unsigned char 
  2774 ;;		 -> STR_9(7), STR_8(3), STR_7(3), STR_6(8), 
  2775 ;;		 -> STR_5(3), STR_4(7), STR_3(8), STR_2(3), 
  2776 ;;		 -> STR_1(15), 
  2777 ;; Auto vars:     Size  Location     Type
  2778 ;;  tmpval          4    0        struct .
  2779 ;;  cp              3    0        PTR const unsigned char 
  2780 ;;  val             2   21[COMRAM] unsigned int 
  2781 ;;  ap              2   19[COMRAM] PTR void [1]
  2782 ;;		 -> ?_printf(2), 
  2783 ;;  len             2    0        unsigned int 
  2784 ;;  c               1   23[COMRAM] char 
  2785 ;;  prec            1   18[COMRAM] char 
  2786 ;;  flag            1   17[COMRAM] unsigned char 
  2787 ;; Return value:  Size  Location     Type
  2788 ;;                  2   12[COMRAM] int 
  2789 ;; Registers used:
  2790 ;;		wreg, fsr2l, fsr2h, status,2, status,0, tblptrl, tblptrh, tblptru, prodl, prodh, cstack
  2791 ;; Tracked objects:
  2792 ;;		On entry : 0/0
  2793 ;;		On exit  : 0/0
  2794 ;;		Unchanged: 0/0
  2795 ;; Data sizes:     COMRAM   BANK0   BANK1   BANK2   BANK3   BANK4   BANK5   BANK6   BANK7
  2796 ;;      Params:         4       0       0       0       0       0       0       0       0
  2797 ;;      Locals:         7       0       0       0       0       0       0       0       0
  2798 ;;      Temps:          1       0       0       0       0       0       0       0       0
  2799 ;;      Totals:        12       0       0       0       0       0       0       0       0
  2800 ;;Total ram usage:       12 bytes
  2801 ;; Hardware stack levels used:    1
  2802 ;; Hardware stack levels required when called:    1
  2803 ;; This function calls:
  2804 ;;		___lwdiv
  2805 ;;		___lwmod
  2806 ;;		_putch
  2807 ;; This function is called by:
  2808 ;;		_main
  2809 ;;		_decode_message
  2810 ;;		_encode_message
  2811 ;; This function uses a non-reentrant model
  2812 ;;
  2813                           
  2814                           	psect	text3
  2815  000FF8                     __ptext3:
  2816                           	opt stack 0
  2817  000FF8                     _printf:
  2818                           	opt stack 29
  2819                           
  2820                           ;doprnt.c: 466: va_list ap;
  2821                           ;doprnt.c: 499: signed char c;
  2822                           ;doprnt.c: 506: signed char prec;
  2823                           ;doprnt.c: 508: unsigned char flag;
  2824                           ;doprnt.c: 523: union {
  2825                           ;doprnt.c: 524: unsigned long vd;
  2826                           ;doprnt.c: 525: double integ;
  2827                           ;doprnt.c: 526: } tmpval;
  2828                           ;doprnt.c: 528: unsigned int val;
  2829                           ;doprnt.c: 529: unsigned len;
  2830                           ;doprnt.c: 530: const char * cp;
  2831                           ;doprnt.c: 533: *ap = __va_start();
  2832                           
  2833                           ;incstack = 0
  2834  000FF8  0E0F               	movlw	low (?_printf+2)
  2835  000FFA  6E14               	movwf	printf@ap,c
  2836  000FFC  0E00               	movlw	high (?_printf+2)
  2837  000FFE  6E15               	movwf	printf@ap+1,c
  2838                           
  2839                           ;doprnt.c: 536: while(c = *f++) {
  2840  001000  D08F               	goto	l1081
  2841  001002                     l1029:
  2842                           
  2843                           ;doprnt.c: 538: if(c != '%')
  2844  001002  0E25               	movlw	37
  2845  001004  1818               	xorwf	printf@c,w,c
  2846  001006  B4D8               	btfsc	status,2,c
  2847  001008  D004               	goto	l1033
  2848                           
  2849                           ;doprnt.c: 540: {
  2850                           ;doprnt.c: 541: (putch(c) );
  2851  00100A  5018               	movf	printf@c,w,c
  2852  00100C  EC73  F00A         	call	_putch
  2853                           
  2854                           ;doprnt.c: 542: continue;
  2855  001010  D087               	goto	l1081
  2856  001012                     l1033:
  2857                           
  2858                           ;doprnt.c: 543: }
  2859                           ;doprnt.c: 548: flag = 0;
  2860  001012  0E00               	movlw	0
  2861  001014  6E12               	movwf	printf@flag,c
  2862                           
  2863                           ;doprnt.c: 635: switch(c = *f++) {
  2864  001016  D00E               	goto	l1043
  2865  001018                     l1035:
  2866                           
  2867                           ;doprnt.c: 799: c = (*(int *)__va_arg((*(int **)ap), (int)0));
  2868  001018  C014  FFD9         	movff	printf@ap,fsr2l
  2869  00101C  C015  FFDA         	movff	printf@ap+1,fsr2h
  2870  001020  50DF               	movf	indf2,w,c
  2871  001022  6E18               	movwf	printf@c,c
  2872  001024  0E02               	movlw	2
  2873  001026  2614               	addwf	printf@ap,f,c
  2874  001028  0E00               	movlw	0
  2875  00102A  2215               	addwfc	printf@ap+1,f,c
  2876  00102C                     l1039:
  2877                           
  2878                           ;doprnt.c: 809: (putch(c) );
  2879  00102C  5018               	movf	printf@c,w,c
  2880  00102E  EC73  F00A         	call	_putch
  2881                           
  2882                           ;doprnt.c: 810: continue;
  2883  001032  D076               	goto	l1081
  2884  001034                     l1043:
  2885  001034  C00D  FFF6         	movff	printf@f,tblptrl
  2886  001038  C00E  FFF7         	movff	printf@f+1,tblptrh
  2887  00103C  4A0D               	infsnz	printf@f,f,c
  2888  00103E  2A0E               	incf	printf@f+1,f,c
  2889  001040                     	if	0	;tblptru may be non-zero
  2890  001040                     	endif
  2891  001040                     	if	0	;tblptru may be non-zero
  2892  001040                     	endif
  2893  001040  0008               	tblrd		*
  2894  001042  CFF5 F018          	movff	tablat,printf@c
  2895  001046  5018               	movf	printf@c,w,c
  2896                           
  2897                           ; Switch size 1, requested type "space"
  2898                           ; Number of cases is 4, Range of values is 0 to 105
  2899                           ; switch strategies available:
  2900                           ; Name         Instructions Cycles
  2901                           ; simple_byte           13     7 (average)
  2902                           ;	Chosen strategy is simple_byte
  2903  001048  0A00               	xorlw	0	; case 0
  2904  00104A  B4D8               	btfsc	status,2,c
  2905  00104C  0012               	return	
  2906  00104E  0A63               	xorlw	99	; case 99
  2907  001050  B4D8               	btfsc	status,2,c
  2908  001052  D7E2               	goto	l1035
  2909  001054  0A07               	xorlw	7	; case 100
  2910  001056  B4D8               	btfsc	status,2,c
  2911  001058  D003               	goto	l1045
  2912  00105A  0A0D               	xorlw	13	; case 105
  2913  00105C  A4D8               	btfss	status,2,c
  2914  00105E  D7E6               	goto	l1039
  2915  001060                     l1045:
  2916                           
  2917                           ;doprnt.c: 1253: {
  2918                           ;doprnt.c: 1259: val = (int)(*(int *)__va_arg((*(int **)ap), (int)0));
  2919  001060  C014  FFD9         	movff	printf@ap,fsr2l
  2920  001064  C015  FFDA         	movff	printf@ap+1,fsr2h
  2921  001068  CFDE F016          	movff	postinc2,printf@val
  2922  00106C  CFDD F017          	movff	postdec2,printf@val+1
  2923  001070  0E02               	movlw	2
  2924  001072  2614               	addwf	printf@ap,f,c
  2925  001074  0E00               	movlw	0
  2926  001076  2215               	addwfc	printf@ap+1,f,c
  2927                           
  2928                           ;doprnt.c: 1261: if((int)val < 0) {
  2929  001078  AE17               	btfss	printf@val+1,7,c
  2930  00107A  D006               	goto	l1055
  2931                           
  2932                           ;doprnt.c: 1262: flag |= 0x03;
  2933  00107C  0E03               	movlw	3
  2934  00107E  1212               	iorwf	printf@flag,f,c
  2935                           
  2936                           ;doprnt.c: 1263: val = -val;
  2937  001080  6C16               	negf	printf@val,c
  2938  001082  1E17               	comf	printf@val+1,f,c
  2939  001084  B0D8               	btfsc	status,0,c
  2940  001086  2A17               	incf	printf@val+1,f,c
  2941  001088                     l1055:
  2942                           
  2943                           ;doprnt.c: 1264: }
  2944                           ;doprnt.c: 1266: }
  2945                           ;doprnt.c: 1305: for(c = 1 ; c != sizeof dpowers/sizeof dpowers[0] ; c++)
  2946  001088  0E01               	movlw	1
  2947  00108A  6E18               	movwf	printf@c,c
  2948  00108C                     l1057:
  2949  00108C  0E05               	movlw	5
  2950  00108E  1818               	xorwf	printf@c,w,c
  2951  001090  B4D8               	btfsc	status,2,c
  2952  001092  D012               	goto	l1069
  2953                           
  2954                           ;doprnt.c: 1306: if(val < dpowers[c])
  2955  001094  5018               	movf	printf@c,w,c
  2956  001096  0D02               	mullw	2
  2957  001098  0E01               	movlw	low _dpowers
  2958  00109A  24F3               	addwf	prodl,w,c
  2959  00109C  6EF6               	movwf	tblptrl,c
  2960  00109E  0E08               	movlw	high _dpowers
  2961  0010A0  20F4               	addwfc	prodh,w,c
  2962  0010A2  6EF7               	movwf	tblptrh,c
  2963  0010A4                     	if	0	;There are less than 3 active tblptr bytes
  2964  0010A4                     	endif
  2965  0010A4  0009               	tblrd		*+
  2966  0010A6  50F5               	movf	tablat,w,c
  2967  0010A8  5C16               	subwf	printf@val,w,c
  2968  0010AA  0009               	tblrd		*+
  2969  0010AC  50F5               	movf	tablat,w,c
  2970  0010AE  5817               	subwfb	printf@val+1,w,c
  2971  0010B0  A0D8               	btfss	status,0,c
  2972  0010B2  D002               	goto	l1069
  2973                           
  2974                           ;doprnt.c: 1307: break;
  2975  0010B4  2A18               	incf	printf@c,f,c
  2976  0010B6  D7EA               	goto	l1057
  2977  0010B8                     l1069:
  2978                           
  2979                           ;doprnt.c: 1422: {
  2980                           ;doprnt.c: 1438: if(flag & 0x03)
  2981  0010B8  C012  F011         	movff	printf@flag,??_printf
  2982  0010BC  0E03               	movlw	3
  2983  0010BE  1611               	andwf	??_printf,f,c
  2984  0010C0  B4D8               	btfsc	status,2,c
  2985  0010C2  D003               	goto	l1073
  2986                           
  2987                           ;doprnt.c: 1439: (putch('-') );
  2988  0010C4  0E2D               	movlw	45
  2989  0010C6  EC73  F00A         	call	_putch
  2990  0010CA                     l1073:
  2991                           
  2992                           ;doprnt.c: 1469: }
  2993                           ;doprnt.c: 1472: prec = c;
  2994  0010CA  C018  F013         	movff	printf@c,printf@prec
  2995                           
  2996                           ;doprnt.c: 1474: while(prec--) {
  2997  0010CE  D024               	goto	l1079
  2998  0010D0                     l1075:
  2999                           
  3000                           ;doprnt.c: 1478: {
  3001                           ;doprnt.c: 1489: c = (val / dpowers[prec]) % 10 + '0';
  3002  0010D0  5013               	movf	printf@prec,w,c
  3003  0010D2  0D02               	mullw	2
  3004  0010D4  0E01               	movlw	low _dpowers
  3005  0010D6  24F3               	addwf	prodl,w,c
  3006  0010D8  6EF6               	movwf	tblptrl,c
  3007  0010DA  0E08               	movlw	high _dpowers
  3008  0010DC  20F4               	addwfc	prodh,w,c
  3009  0010DE  6EF7               	movwf	tblptrh,c
  3010  0010E0                     	if	0	;There are less than 3 active tblptr bytes
  3011  0010E0                     	endif
  3012  0010E0  0009               	tblrd		*+
  3013  0010E2  CFF5 F003          	movff	tablat,___lwdiv@divisor
  3014  0010E6  000A               	tblrd		*-
  3015  0010E8  CFF5 F004          	movff	tablat,___lwdiv@divisor+1
  3016  0010EC  C016  F001         	movff	printf@val,___lwdiv@dividend
  3017  0010F0  C017  F002         	movff	printf@val+1,___lwdiv@dividend+1
  3018  0010F4  ECCE  F009         	call	___lwdiv	;wreg free
  3019  0010F8  C001  F008         	movff	?___lwdiv,___lwmod@dividend
  3020  0010FC  C002  F009         	movff	?___lwdiv+1,___lwmod@dividend+1
  3021  001100  0E00               	movlw	0
  3022  001102  6E0B               	movwf	___lwmod@divisor+1,c
  3023  001104  0E0A               	movlw	10
  3024  001106  6E0A               	movwf	___lwmod@divisor,c
  3025  001108  ECF7  F009         	call	___lwmod	;wreg free
  3026  00110C  5008               	movf	?___lwmod,w,c
  3027  00110E  0F30               	addlw	48
  3028  001110  6E18               	movwf	printf@c,c
  3029                           
  3030                           ;doprnt.c: 1523: }
  3031                           ;doprnt.c: 1524: (putch(c) );
  3032  001112  5018               	movf	printf@c,w,c
  3033  001114  EC73  F00A         	call	_putch
  3034  001118                     l1079:
  3035  001118  0613               	decf	printf@prec,f,c
  3036  00111A  2813               	incf	printf@prec,w,c
  3037  00111C  A4D8               	btfss	status,2,c
  3038  00111E  D7D8               	goto	l1075
  3039  001120                     l1081:
  3040  001120  C00D  FFF6         	movff	printf@f,tblptrl
  3041  001124  C00E  FFF7         	movff	printf@f+1,tblptrh
  3042  001128  4A0D               	infsnz	printf@f,f,c
  3043  00112A  2A0E               	incf	printf@f+1,f,c
  3044  00112C                     	if	0	;tblptru may be non-zero
  3045  00112C                     	endif
  3046  00112C                     	if	0	;tblptru may be non-zero
  3047  00112C                     	endif
  3048  00112C  0008               	tblrd		*
  3049  00112E  CFF5 F018          	movff	tablat,printf@c
  3050  001132  5018               	movf	printf@c,w,c
  3051  001134  B4D8               	btfsc	status,2,c
  3052  001136  0012               	return	
  3053  001138  D764               	goto	l1029
  3054  00113A                     __end_of_printf:
  3055                           	opt stack 0
  3056                           tblptru	equ	0xFF8
  3057                           tblptrh	equ	0xFF7
  3058                           tblptrl	equ	0xFF6
  3059                           tablat	equ	0xFF5
  3060                           prodh	equ	0xFF4
  3061                           prodl	equ	0xFF3
  3062                           postinc0	equ	0xFEE
  3063                           postdec1	equ	0xFE5
  3064                           fsr1h	equ	0xFE2
  3065                           fsr1l	equ	0xFE1
  3066                           indf2	equ	0xFDF
  3067                           postinc2	equ	0xFDE
  3068                           postdec2	equ	0xFDD
  3069                           fsr2h	equ	0xFDA
  3070                           fsr2l	equ	0xFD9
  3071                           status	equ	0xFD8
  3072                           
  3073 ;; *************** function _putch *****************
  3074 ;; Defined at:
  3075 ;;		line 25 in file "readWriteMsg.c"
  3076 ;; Parameters:    Size  Location     Type
  3077 ;;  data            1    wreg     unsigned char 
  3078 ;; Auto vars:     Size  Location     Type
  3079 ;;  data            1    0[COMRAM] unsigned char 
  3080 ;; Return value:  Size  Location     Type
  3081 ;;                  1    wreg      void 
  3082 ;; Registers used:
  3083 ;;		wreg
  3084 ;; Tracked objects:
  3085 ;;		On entry : 0/0
  3086 ;;		On exit  : 0/0
  3087 ;;		Unchanged: 0/0
  3088 ;; Data sizes:     COMRAM   BANK0   BANK1   BANK2   BANK3   BANK4   BANK5   BANK6   BANK7
  3089 ;;      Params:         0       0       0       0       0       0       0       0       0
  3090 ;;      Locals:         1       0       0       0       0       0       0       0       0
  3091 ;;      Temps:          0       0       0       0       0       0       0       0       0
  3092 ;;      Totals:         1       0       0       0       0       0       0       0       0
  3093 ;;Total ram usage:        1 bytes
  3094 ;; Hardware stack levels used:    1
  3095 ;; This function calls:
  3096 ;;		Nothing
  3097 ;; This function is called by:
  3098 ;;		_printf
  3099 ;; This function uses a non-reentrant model
  3100 ;;
  3101                           
  3102                           	psect	text4
  3103  0014E6                     __ptext4:
  3104                           	opt stack 0
  3105  0014E6                     _putch:
  3106                           	opt stack 29
  3107                           
  3108                           ;incstack = 0
  3109                           ;putch@data stored from wreg
  3110  0014E6  6E01               	movwf	putch@data,c
  3111  0014E8                     l27:
  3112  0014E8  A89E               	btfss	3998,4,c	;volatile
  3113  0014EA  D7FE               	goto	l27
  3114                           
  3115                           ;readWriteMsg.c: 28: TXREG = data;
  3116  0014EC  C001  FFAD         	movff	putch@data,4013	;volatile
  3117  0014F0  0012               	return		;funcret
  3118  0014F2                     __end_of_putch:
  3119                           	opt stack 0
  3120                           tblptru	equ	0xFF8
  3121                           tblptrh	equ	0xFF7
  3122                           tblptrl	equ	0xFF6
  3123                           tablat	equ	0xFF5
  3124                           prodh	equ	0xFF4
  3125                           prodl	equ	0xFF3
  3126                           postinc0	equ	0xFEE
  3127                           postdec1	equ	0xFE5
  3128                           fsr1h	equ	0xFE2
  3129                           fsr1l	equ	0xFE1
  3130                           indf2	equ	0xFDF
  3131                           postinc2	equ	0xFDE
  3132                           postdec2	equ	0xFDD
  3133                           fsr2h	equ	0xFDA
  3134                           fsr2l	equ	0xFD9
  3135                           status	equ	0xFD8
  3136                           
  3137 ;; *************** function ___lwmod *****************
  3138 ;; Defined at:
  3139 ;;		line 8 in file "C:\Program Files (x86)\Microchip\xc8\v1.40\sources\common\lwmod.c"
  3140 ;; Parameters:    Size  Location     Type
  3141 ;;  dividend        2    7[COMRAM] unsigned int 
  3142 ;;  divisor         2    9[COMRAM] unsigned int 
  3143 ;; Auto vars:     Size  Location     Type
  3144 ;;  counter         1   11[COMRAM] unsigned char 
  3145 ;; Return value:  Size  Location     Type
  3146 ;;                  2    7[COMRAM] unsigned int 
  3147 ;; Registers used:
  3148 ;;		wreg, status,2, status,0
  3149 ;; Tracked objects:
  3150 ;;		On entry : 0/0
  3151 ;;		On exit  : 0/0
  3152 ;;		Unchanged: 0/0
  3153 ;; Data sizes:     COMRAM   BANK0   BANK1   BANK2   BANK3   BANK4   BANK5   BANK6   BANK7
  3154 ;;      Params:         4       0       0       0       0       0       0       0       0
  3155 ;;      Locals:         1       0       0       0       0       0       0       0       0
  3156 ;;      Temps:          0       0       0       0       0       0       0       0       0
  3157 ;;      Totals:         5       0       0       0       0       0       0       0       0
  3158 ;;Total ram usage:        5 bytes
  3159 ;; Hardware stack levels used:    1
  3160 ;; This function calls:
  3161 ;;		Nothing
  3162 ;; This function is called by:
  3163 ;;		_printf
  3164 ;; This function uses a non-reentrant model
  3165 ;;
  3166                           
  3167                           	psect	text5
  3168  0013EE                     __ptext5:
  3169                           	opt stack 0
  3170  0013EE                     ___lwmod:
  3171                           	opt stack 29
  3172                           
  3173                           ;incstack = 0
  3174  0013EE  500A               	movf	___lwmod@divisor,w,c
  3175  0013F0  100B               	iorwf	___lwmod@divisor+1,w,c
  3176  0013F2  B4D8               	btfsc	status,2,c
  3177  0013F4  D018               	goto	l508
  3178  0013F6  0E01               	movlw	1
  3179  0013F8  6E0C               	movwf	___lwmod@counter,c
  3180  0013FA  D004               	goto	l1017
  3181  0013FC                     l1015:
  3182  0013FC  90D8               	bcf	status,0,c
  3183  0013FE  360A               	rlcf	___lwmod@divisor,f,c
  3184  001400  360B               	rlcf	___lwmod@divisor+1,f,c
  3185  001402  2A0C               	incf	___lwmod@counter,f,c
  3186  001404                     l1017:
  3187  001404  AE0B               	btfss	___lwmod@divisor+1,7,c
  3188  001406  D7FA               	goto	l1015
  3189  001408                     l1019:
  3190  001408  500A               	movf	___lwmod@divisor,w,c
  3191  00140A  5C08               	subwf	___lwmod@dividend,w,c
  3192  00140C  500B               	movf	___lwmod@divisor+1,w,c
  3193  00140E  5809               	subwfb	___lwmod@dividend+1,w,c
  3194  001410  A0D8               	btfss	status,0,c
  3195  001412  D004               	goto	l1023
  3196  001414  500A               	movf	___lwmod@divisor,w,c
  3197  001416  5E08               	subwf	___lwmod@dividend,f,c
  3198  001418  500B               	movf	___lwmod@divisor+1,w,c
  3199  00141A  5A09               	subwfb	___lwmod@dividend+1,f,c
  3200  00141C                     l1023:
  3201  00141C  90D8               	bcf	status,0,c
  3202  00141E  320B               	rrcf	___lwmod@divisor+1,f,c
  3203  001420  320A               	rrcf	___lwmod@divisor,f,c
  3204  001422  2E0C               	decfsz	___lwmod@counter,f,c
  3205  001424  D7F1               	goto	l1019
  3206  001426                     l508:
  3207  001426  C008  F008         	movff	___lwmod@dividend,?___lwmod
  3208  00142A  C009  F009         	movff	___lwmod@dividend+1,?___lwmod+1
  3209  00142E  0012               	return		;funcret
  3210  001430                     __end_of___lwmod:
  3211                           	opt stack 0
  3212                           tblptru	equ	0xFF8
  3213                           tblptrh	equ	0xFF7
  3214                           tblptrl	equ	0xFF6
  3215                           tablat	equ	0xFF5
  3216                           prodh	equ	0xFF4
  3217                           prodl	equ	0xFF3
  3218                           postinc0	equ	0xFEE
  3219                           postdec1	equ	0xFE5
  3220                           fsr1h	equ	0xFE2
  3221                           fsr1l	equ	0xFE1
  3222                           indf2	equ	0xFDF
  3223                           postinc2	equ	0xFDE
  3224                           postdec2	equ	0xFDD
  3225                           fsr2h	equ	0xFDA
  3226                           fsr2l	equ	0xFD9
  3227                           status	equ	0xFD8
  3228                           
  3229 ;; *************** function ___lwdiv *****************
  3230 ;; Defined at:
  3231 ;;		line 8 in file "C:\Program Files (x86)\Microchip\xc8\v1.40\sources\common\lwdiv.c"
  3232 ;; Parameters:    Size  Location     Type
  3233 ;;  dividend        2    0[COMRAM] unsigned int 
  3234 ;;  divisor         2    2[COMRAM] unsigned int 
  3235 ;; Auto vars:     Size  Location     Type
  3236 ;;  quotient        2    4[COMRAM] unsigned int 
  3237 ;;  counter         1    6[COMRAM] unsigned char 
  3238 ;; Return value:  Size  Location     Type
  3239 ;;                  2    0[COMRAM] unsigned int 
  3240 ;; Registers used:
  3241 ;;		wreg, status,2, status,0
  3242 ;; Tracked objects:
  3243 ;;		On entry : 0/0
  3244 ;;		On exit  : 0/0
  3245 ;;		Unchanged: 0/0
  3246 ;; Data sizes:     COMRAM   BANK0   BANK1   BANK2   BANK3   BANK4   BANK5   BANK6   BANK7
  3247 ;;      Params:         4       0       0       0       0       0       0       0       0
  3248 ;;      Locals:         3       0       0       0       0       0       0       0       0
  3249 ;;      Temps:          0       0       0       0       0       0       0       0       0
  3250 ;;      Totals:         7       0       0       0       0       0       0       0       0
  3251 ;;Total ram usage:        7 bytes
  3252 ;; Hardware stack levels used:    1
  3253 ;; This function calls:
  3254 ;;		Nothing
  3255 ;; This function is called by:
  3256 ;;		_printf
  3257 ;; This function uses a non-reentrant model
  3258 ;;
  3259                           
  3260                           	psect	text6
  3261  00139C                     __ptext6:
  3262                           	opt stack 0
  3263  00139C                     ___lwdiv:
  3264                           	opt stack 29
  3265                           
  3266                           ;incstack = 0
  3267  00139C  0E00               	movlw	0
  3268  00139E  6E06               	movwf	___lwdiv@quotient+1,c
  3269  0013A0  0E00               	movlw	0
  3270  0013A2  6E05               	movwf	___lwdiv@quotient,c
  3271  0013A4  5003               	movf	___lwdiv@divisor,w,c
  3272  0013A6  1004               	iorwf	___lwdiv@divisor+1,w,c
  3273  0013A8  B4D8               	btfsc	status,2,c
  3274  0013AA  D01C               	goto	l498
  3275  0013AC  0E01               	movlw	1
  3276  0013AE  6E07               	movwf	___lwdiv@counter,c
  3277  0013B0  D004               	goto	l997
  3278  0013B2                     l995:
  3279  0013B2  90D8               	bcf	status,0,c
  3280  0013B4  3603               	rlcf	___lwdiv@divisor,f,c
  3281  0013B6  3604               	rlcf	___lwdiv@divisor+1,f,c
  3282  0013B8  2A07               	incf	___lwdiv@counter,f,c
  3283  0013BA                     l997:
  3284  0013BA  AE04               	btfss	___lwdiv@divisor+1,7,c
  3285  0013BC  D7FA               	goto	l995
  3286  0013BE                     l999:
  3287  0013BE  90D8               	bcf	status,0,c
  3288  0013C0  3605               	rlcf	___lwdiv@quotient,f,c
  3289  0013C2  3606               	rlcf	___lwdiv@quotient+1,f,c
  3290  0013C4  5003               	movf	___lwdiv@divisor,w,c
  3291  0013C6  5C01               	subwf	___lwdiv@dividend,w,c
  3292  0013C8  5004               	movf	___lwdiv@divisor+1,w,c
  3293  0013CA  5802               	subwfb	___lwdiv@dividend+1,w,c
  3294  0013CC  A0D8               	btfss	status,0,c
  3295  0013CE  D005               	goto	l1007
  3296  0013D0  5003               	movf	___lwdiv@divisor,w,c
  3297  0013D2  5E01               	subwf	___lwdiv@dividend,f,c
  3298  0013D4  5004               	movf	___lwdiv@divisor+1,w,c
  3299  0013D6  5A02               	subwfb	___lwdiv@dividend+1,f,c
  3300  0013D8  8005               	bsf	___lwdiv@quotient,0,c
  3301  0013DA                     l1007:
  3302  0013DA  90D8               	bcf	status,0,c
  3303  0013DC  3204               	rrcf	___lwdiv@divisor+1,f,c
  3304  0013DE  3203               	rrcf	___lwdiv@divisor,f,c
  3305  0013E0  2E07               	decfsz	___lwdiv@counter,f,c
  3306  0013E2  D7ED               	goto	l999
  3307  0013E4                     l498:
  3308  0013E4  C005  F001         	movff	___lwdiv@quotient,?___lwdiv
  3309  0013E8  C006  F002         	movff	___lwdiv@quotient+1,?___lwdiv+1
  3310  0013EC  0012               	return		;funcret
  3311  0013EE                     __end_of___lwdiv:
  3312                           	opt stack 0
  3313                           tblptru	equ	0xFF8
  3314                           tblptrh	equ	0xFF7
  3315                           tblptrl	equ	0xFF6
  3316                           tablat	equ	0xFF5
  3317                           prodh	equ	0xFF4
  3318                           prodl	equ	0xFF3
  3319                           postinc0	equ	0xFEE
  3320                           postdec1	equ	0xFE5
  3321                           fsr1h	equ	0xFE2
  3322                           fsr1l	equ	0xFE1
  3323                           indf2	equ	0xFDF
  3324                           postinc2	equ	0xFDE
  3325                           postdec2	equ	0xFDD
  3326                           fsr2h	equ	0xFDA
  3327                           fsr2l	equ	0xFD9
  3328                           status	equ	0xFD8
  3329                           
  3330 ;; *************** function _UART_Stop *****************
  3331 ;; Defined at:
  3332 ;;		line 44 in file "readWriteMsg.c"
  3333 ;; Parameters:    Size  Location     Type
  3334 ;;		None
  3335 ;; Auto vars:     Size  Location     Type
  3336 ;;		None
  3337 ;; Return value:  Size  Location     Type
  3338 ;;                  1    wreg      void 
  3339 ;; Registers used:
  3340 ;;		wreg, status,2
  3341 ;; Tracked objects:
  3342 ;;		On entry : 0/0
  3343 ;;		On exit  : 0/0
  3344 ;;		Unchanged: 0/0
  3345 ;; Data sizes:     COMRAM   BANK0   BANK1   BANK2   BANK3   BANK4   BANK5   BANK6   BANK7
  3346 ;;      Params:         0       0       0       0       0       0       0       0       0
  3347 ;;      Locals:         0       0       0       0       0       0       0       0       0
  3348 ;;      Temps:          0       0       0       0       0       0       0       0       0
  3349 ;;      Totals:         0       0       0       0       0       0       0       0       0
  3350 ;;Total ram usage:        0 bytes
  3351 ;; Hardware stack levels used:    1
  3352 ;; This function calls:
  3353 ;;		Nothing
  3354 ;; This function is called by:
  3355 ;;		_main
  3356 ;; This function uses a non-reentrant model
  3357 ;;
  3358                           
  3359                           	psect	text7
  3360  0014D4                     __ptext7:
  3361                           	opt stack 0
  3362  0014D4                     _UART_Stop:
  3363                           	opt stack 30
  3364                           
  3365                           ;readWriteMsg.c: 45: SPBRG = 0;
  3366                           
  3367                           ;incstack = 0
  3368  0014D4  0E00               	movlw	0
  3369  0014D6  6EAF               	movwf	4015,c	;volatile
  3370                           
  3371                           ;readWriteMsg.c: 46: SYNC = 0;
  3372  0014D8  98AC               	bcf	4012,4,c	;volatile
  3373                           
  3374                           ;readWriteMsg.c: 47: SPEN = 0;
  3375  0014DA  9EAB               	bcf	4011,7,c	;volatile
  3376                           
  3377                           ;readWriteMsg.c: 48: TRISC7 = 0;
  3378  0014DC  9E94               	bcf	3988,7,c	;volatile
  3379                           
  3380                           ;readWriteMsg.c: 49: TRISC6 = 0;
  3381  0014DE  9C94               	bcf	3988,6,c	;volatile
  3382                           
  3383                           ;readWriteMsg.c: 50: CREN = 0;
  3384  0014E0  98AB               	bcf	4011,4,c	;volatile
  3385                           
  3386                           ;readWriteMsg.c: 51: TXEN = 0;
  3387  0014E2  9AAC               	bcf	4012,5,c	;volatile
  3388  0014E4  0012               	return		;funcret
  3389  0014E6                     __end_of_UART_Stop:
  3390                           	opt stack 0
  3391                           tblptru	equ	0xFF8
  3392                           tblptrh	equ	0xFF7
  3393                           tblptrl	equ	0xFF6
  3394                           tablat	equ	0xFF5
  3395                           prodh	equ	0xFF4
  3396                           prodl	equ	0xFF3
  3397                           postinc0	equ	0xFEE
  3398                           postdec1	equ	0xFE5
  3399                           fsr1h	equ	0xFE2
  3400                           fsr1l	equ	0xFE1
  3401                           indf2	equ	0xFDF
  3402                           postinc2	equ	0xFDE
  3403                           postdec2	equ	0xFDD
  3404                           fsr2h	equ	0xFDA
  3405                           fsr2l	equ	0xFD9
  3406                           status	equ	0xFD8
  3407                           
  3408 ;; *************** function _UART_Init *****************
  3409 ;; Defined at:
  3410 ;;		line 31 in file "readWriteMsg.c"
  3411 ;; Parameters:    Size  Location     Type
  3412 ;;  baudrate        4   14[COMRAM] const long 
  3413 ;; Auto vars:     Size  Location     Type
  3414 ;;  x               2   22[COMRAM] unsigned int 
  3415 ;; Return value:  Size  Location     Type
  3416 ;;                  1    wreg      void 
  3417 ;; Registers used:
  3418 ;;		wreg, status,2, status,0, cstack
  3419 ;; Tracked objects:
  3420 ;;		On entry : 0/0
  3421 ;;		On exit  : 0/0
  3422 ;;		Unchanged: 0/0
  3423 ;; Data sizes:     COMRAM   BANK0   BANK1   BANK2   BANK3   BANK4   BANK5   BANK6   BANK7
  3424 ;;      Params:         4       0       0       0       0       0       0       0       0
  3425 ;;      Locals:         6       0       0       0       0       0       0       0       0
  3426 ;;      Temps:          0       0       0       0       0       0       0       0       0
  3427 ;;      Totals:        10       0       0       0       0       0       0       0       0
  3428 ;;Total ram usage:       10 bytes
  3429 ;; Hardware stack levels used:    1
  3430 ;; Hardware stack levels required when called:    1
  3431 ;; This function calls:
  3432 ;;		___aldiv
  3433 ;; This function is called by:
  3434 ;;		_main
  3435 ;; This function uses a non-reentrant model
  3436 ;;
  3437                           
  3438                           	psect	text8
  3439  001326                     __ptext8:
  3440                           	opt stack 0
  3441  001326                     _UART_Init:
  3442                           	opt stack 29
  3443                           
  3444                           ;readWriteMsg.c: 32: unsigned int x;
  3445                           ;readWriteMsg.c: 33: x = (8000000/baudrate/64) - 1;
  3446                           
  3447                           ;incstack = 0
  3448  001326  C00F  F005         	movff	UART_Init@baudrate,___aldiv@divisor
  3449  00132A  C010  F006         	movff	UART_Init@baudrate+1,___aldiv@divisor+1
  3450  00132E  C011  F007         	movff	UART_Init@baudrate+2,___aldiv@divisor+2
  3451  001332  C012  F008         	movff	UART_Init@baudrate+3,___aldiv@divisor+3
  3452  001336  0E00               	movlw	0
  3453  001338  6E01               	movwf	___aldiv@dividend,c
  3454  00133A  0E12               	movlw	18
  3455  00133C  6E02               	movwf	___aldiv@dividend+1,c
  3456  00133E  0E7A               	movlw	122
  3457  001340  6E03               	movwf	___aldiv@dividend+2,c
  3458  001342  0E00               	movlw	0
  3459  001344  6E04               	movwf	___aldiv@dividend+3,c
  3460  001346  EC2D  F009         	call	___aldiv	;wreg free
  3461  00134A  C001  F013         	movff	?___aldiv,_UART_Init$688
  3462  00134E  C002  F014         	movff	?___aldiv+1,_UART_Init$688+1
  3463  001352  C003  F015         	movff	?___aldiv+2,_UART_Init$688+2
  3464  001356  C004  F016         	movff	?___aldiv+3,_UART_Init$688+3
  3465                           
  3466                           ;readWriteMsg.c: 32: unsigned int x;
  3467                           ;readWriteMsg.c: 33: x = (8000000/baudrate/64) - 1;
  3468  00135A  C013  F001         	movff	_UART_Init$688,___aldiv@dividend
  3469  00135E  C014  F002         	movff	_UART_Init$688+1,___aldiv@dividend+1
  3470  001362  C015  F003         	movff	_UART_Init$688+2,___aldiv@dividend+2
  3471  001366  C016  F004         	movff	_UART_Init$688+3,___aldiv@dividend+3
  3472  00136A  0E40               	movlw	64
  3473  00136C  6E05               	movwf	___aldiv@divisor,c
  3474  00136E  0E00               	movlw	0
  3475  001370  6E06               	movwf	___aldiv@divisor+1,c
  3476  001372  0E00               	movlw	0
  3477  001374  6E07               	movwf	___aldiv@divisor+2,c
  3478  001376  0E00               	movlw	0
  3479  001378  6E08               	movwf	___aldiv@divisor+3,c
  3480  00137A  EC2D  F009         	call	___aldiv	;wreg free
  3481  00137E  0EFF               	movlw	255
  3482  001380  2401               	addwf	?___aldiv,w,c
  3483  001382  6E17               	movwf	UART_Init@x,c
  3484  001384  0EFF               	movlw	255
  3485  001386  2002               	addwfc	?___aldiv+1,w,c
  3486  001388  6E18               	movwf	UART_Init@x+1,c
  3487                           
  3488                           ;readWriteMsg.c: 35: SPBRG = x;
  3489  00138A  C017  FFAF         	movff	UART_Init@x,4015	;volatile
  3490                           
  3491                           ;readWriteMsg.c: 36: SYNC = 0;
  3492  00138E  98AC               	bcf	4012,4,c	;volatile
  3493                           
  3494                           ;readWriteMsg.c: 37: SPEN = 1;
  3495  001390  8EAB               	bsf	4011,7,c	;volatile
  3496                           
  3497                           ;readWriteMsg.c: 38: TRISC7 = 1;
  3498  001392  8E94               	bsf	3988,7,c	;volatile
  3499                           
  3500                           ;readWriteMsg.c: 39: TRISC6 = 1;
  3501  001394  8C94               	bsf	3988,6,c	;volatile
  3502                           
  3503                           ;readWriteMsg.c: 40: CREN = 1;
  3504  001396  88AB               	bsf	4011,4,c	;volatile
  3505                           
  3506                           ;readWriteMsg.c: 41: TXEN = 1;
  3507  001398  8AAC               	bsf	4012,5,c	;volatile
  3508  00139A  0012               	return		;funcret
  3509  00139C                     __end_of_UART_Init:
  3510                           	opt stack 0
  3511                           tblptru	equ	0xFF8
  3512                           tblptrh	equ	0xFF7
  3513                           tblptrl	equ	0xFF6
  3514                           tablat	equ	0xFF5
  3515                           prodh	equ	0xFF4
  3516                           prodl	equ	0xFF3
  3517                           postinc0	equ	0xFEE
  3518                           postdec1	equ	0xFE5
  3519                           fsr1h	equ	0xFE2
  3520                           fsr1l	equ	0xFE1
  3521                           indf2	equ	0xFDF
  3522                           postinc2	equ	0xFDE
  3523                           postdec2	equ	0xFDD
  3524                           fsr2h	equ	0xFDA
  3525                           fsr2l	equ	0xFD9
  3526                           status	equ	0xFD8
  3527                           
  3528 ;; *************** function ___aldiv *****************
  3529 ;; Defined at:
  3530 ;;		line 8 in file "C:\Program Files (x86)\Microchip\xc8\v1.40\sources\common\aldiv.c"
  3531 ;; Parameters:    Size  Location     Type
  3532 ;;  dividend        4    0[COMRAM] long 
  3533 ;;  divisor         4    4[COMRAM] long 
  3534 ;; Auto vars:     Size  Location     Type
  3535 ;;  quotient        4   10[COMRAM] long 
  3536 ;;  sign            1    9[COMRAM] unsigned char 
  3537 ;;  counter         1    8[COMRAM] unsigned char 
  3538 ;; Return value:  Size  Location     Type
  3539 ;;                  4    0[COMRAM] long 
  3540 ;; Registers used:
  3541 ;;		wreg, status,2, status,0
  3542 ;; Tracked objects:
  3543 ;;		On entry : 0/0
  3544 ;;		On exit  : 0/0
  3545 ;;		Unchanged: 0/0
  3546 ;; Data sizes:     COMRAM   BANK0   BANK1   BANK2   BANK3   BANK4   BANK5   BANK6   BANK7
  3547 ;;      Params:         8       0       0       0       0       0       0       0       0
  3548 ;;      Locals:         6       0       0       0       0       0       0       0       0
  3549 ;;      Temps:          0       0       0       0       0       0       0       0       0
  3550 ;;      Totals:        14       0       0       0       0       0       0       0       0
  3551 ;;Total ram usage:       14 bytes
  3552 ;; Hardware stack levels used:    1
  3553 ;; This function calls:
  3554 ;;		Nothing
  3555 ;; This function is called by:
  3556 ;;		_UART_Init
  3557 ;; This function uses a non-reentrant model
  3558 ;;
  3559                           
  3560                           	psect	text9
  3561  00125A                     __ptext9:
  3562                           	opt stack 0
  3563  00125A                     ___aldiv:
  3564                           	opt stack 29
  3565                           
  3566                           ;incstack = 0
  3567  00125A  0E00               	movlw	0
  3568  00125C  6E0A               	movwf	___aldiv@sign,c
  3569  00125E  AE08               	btfss	___aldiv@divisor+3,7,c
  3570  001260  D00A               	goto	l1101
  3571  001262  1E08               	comf	___aldiv@divisor+3,f,c
  3572  001264  1E07               	comf	___aldiv@divisor+2,f,c
  3573  001266  1E06               	comf	___aldiv@divisor+1,f,c
  3574  001268  6C05               	negf	___aldiv@divisor,c
  3575  00126A  0E00               	movlw	0
  3576  00126C  2206               	addwfc	___aldiv@divisor+1,f,c
  3577  00126E  2207               	addwfc	___aldiv@divisor+2,f,c
  3578  001270  2208               	addwfc	___aldiv@divisor+3,f,c
  3579  001272  0E01               	movlw	1
  3580  001274  6E0A               	movwf	___aldiv@sign,c
  3581  001276                     l1101:
  3582  001276  AE04               	btfss	___aldiv@dividend+3,7,c
  3583  001278  D00A               	goto	l1107
  3584  00127A  1E04               	comf	___aldiv@dividend+3,f,c
  3585  00127C  1E03               	comf	___aldiv@dividend+2,f,c
  3586  00127E  1E02               	comf	___aldiv@dividend+1,f,c
  3587  001280  6C01               	negf	___aldiv@dividend,c
  3588  001282  0E00               	movlw	0
  3589  001284  2202               	addwfc	___aldiv@dividend+1,f,c
  3590  001286  2203               	addwfc	___aldiv@dividend+2,f,c
  3591  001288  2204               	addwfc	___aldiv@dividend+3,f,c
  3592  00128A  0E01               	movlw	1
  3593  00128C  1A0A               	xorwf	___aldiv@sign,f,c
  3594  00128E                     l1107:
  3595  00128E  0E00               	movlw	0
  3596  001290  6E0B               	movwf	___aldiv@quotient,c
  3597  001292  0E00               	movlw	0
  3598  001294  6E0C               	movwf	___aldiv@quotient+1,c
  3599  001296  0E00               	movlw	0
  3600  001298  6E0D               	movwf	___aldiv@quotient+2,c
  3601  00129A  0E00               	movlw	0
  3602  00129C  6E0E               	movwf	___aldiv@quotient+3,c
  3603  00129E  5005               	movf	___aldiv@divisor,w,c
  3604  0012A0  1006               	iorwf	___aldiv@divisor+1,w,c
  3605  0012A2  1007               	iorwf	___aldiv@divisor+2,w,c
  3606  0012A4  1008               	iorwf	___aldiv@divisor+3,w,c
  3607  0012A6  B4D8               	btfsc	status,2,c
  3608  0012A8  D02A               	goto	l1129
  3609  0012AA  0E01               	movlw	1
  3610  0012AC  6E09               	movwf	___aldiv@counter,c
  3611  0012AE  D006               	goto	l1115
  3612  0012B0                     l1113:
  3613  0012B0  90D8               	bcf	status,0,c
  3614  0012B2  3605               	rlcf	___aldiv@divisor,f,c
  3615  0012B4  3606               	rlcf	___aldiv@divisor+1,f,c
  3616  0012B6  3607               	rlcf	___aldiv@divisor+2,f,c
  3617  0012B8  3608               	rlcf	___aldiv@divisor+3,f,c
  3618  0012BA  2A09               	incf	___aldiv@counter,f,c
  3619  0012BC                     l1115:
  3620  0012BC  AE08               	btfss	___aldiv@divisor+3,7,c
  3621  0012BE  D7F8               	goto	l1113
  3622  0012C0                     l1117:
  3623  0012C0  90D8               	bcf	status,0,c
  3624  0012C2  360B               	rlcf	___aldiv@quotient,f,c
  3625  0012C4  360C               	rlcf	___aldiv@quotient+1,f,c
  3626  0012C6  360D               	rlcf	___aldiv@quotient+2,f,c
  3627  0012C8  360E               	rlcf	___aldiv@quotient+3,f,c
  3628  0012CA  5005               	movf	___aldiv@divisor,w,c
  3629  0012CC  5C01               	subwf	___aldiv@dividend,w,c
  3630  0012CE  5006               	movf	___aldiv@divisor+1,w,c
  3631  0012D0  5802               	subwfb	___aldiv@dividend+1,w,c
  3632  0012D2  5007               	movf	___aldiv@divisor+2,w,c
  3633  0012D4  5803               	subwfb	___aldiv@dividend+2,w,c
  3634  0012D6  5008               	movf	___aldiv@divisor+3,w,c
  3635  0012D8  5804               	subwfb	___aldiv@dividend+3,w,c
  3636  0012DA  A0D8               	btfss	status,0,c
  3637  0012DC  D009               	goto	l1125
  3638  0012DE  5005               	movf	___aldiv@divisor,w,c
  3639  0012E0  5E01               	subwf	___aldiv@dividend,f,c
  3640  0012E2  5006               	movf	___aldiv@divisor+1,w,c
  3641  0012E4  5A02               	subwfb	___aldiv@dividend+1,f,c
  3642  0012E6  5007               	movf	___aldiv@divisor+2,w,c
  3643  0012E8  5A03               	subwfb	___aldiv@dividend+2,f,c
  3644  0012EA  5008               	movf	___aldiv@divisor+3,w,c
  3645  0012EC  5A04               	subwfb	___aldiv@dividend+3,f,c
  3646  0012EE  800B               	bsf	___aldiv@quotient,0,c
  3647  0012F0                     l1125:
  3648  0012F0  90D8               	bcf	status,0,c
  3649  0012F2  3208               	rrcf	___aldiv@divisor+3,f,c
  3650  0012F4  3207               	rrcf	___aldiv@divisor+2,f,c
  3651  0012F6  3206               	rrcf	___aldiv@divisor+1,f,c
  3652  0012F8  3205               	rrcf	___aldiv@divisor,f,c
  3653  0012FA  2E09               	decfsz	___aldiv@counter,f,c
  3654  0012FC  D7E1               	goto	l1117
  3655  0012FE                     l1129:
  3656  0012FE  500A               	movf	___aldiv@sign,w,c
  3657  001300  B4D8               	btfsc	status,2,c
  3658  001302  D008               	goto	l1133
  3659  001304  1E0E               	comf	___aldiv@quotient+3,f,c
  3660  001306  1E0D               	comf	___aldiv@quotient+2,f,c
  3661  001308  1E0C               	comf	___aldiv@quotient+1,f,c
  3662  00130A  6C0B               	negf	___aldiv@quotient,c
  3663  00130C  0E00               	movlw	0
  3664  00130E  220C               	addwfc	___aldiv@quotient+1,f,c
  3665  001310  220D               	addwfc	___aldiv@quotient+2,f,c
  3666  001312  220E               	addwfc	___aldiv@quotient+3,f,c
  3667  001314                     l1133:
  3668  001314  C00B  F001         	movff	___aldiv@quotient,?___aldiv
  3669  001318  C00C  F002         	movff	___aldiv@quotient+1,?___aldiv+1
  3670  00131C  C00D  F003         	movff	___aldiv@quotient+2,?___aldiv+2
  3671  001320  C00E  F004         	movff	___aldiv@quotient+3,?___aldiv+3
  3672  001324  0012               	return	
  3673  001326                     __end_of___aldiv:
  3674                           	opt stack 0
  3675                           tblptru	equ	0xFF8
  3676                           tblptrh	equ	0xFF7
  3677                           tblptrl	equ	0xFF6
  3678                           tablat	equ	0xFF5
  3679                           prodh	equ	0xFF4
  3680                           prodl	equ	0xFF3
  3681                           postinc0	equ	0xFEE
  3682                           postdec1	equ	0xFE5
  3683                           fsr1h	equ	0xFE2
  3684                           fsr1l	equ	0xFE1
  3685                           indf2	equ	0xFDF
  3686                           postinc2	equ	0xFDE
  3687                           postdec2	equ	0xFDD
  3688                           fsr2h	equ	0xFDA
  3689                           fsr2l	equ	0xFD9
  3690                           status	equ	0xFD8
  3691                           tblptru	equ	0xFF8
  3692                           tblptrh	equ	0xFF7
  3693                           tblptrl	equ	0xFF6
  3694                           tablat	equ	0xFF5
  3695                           prodh	equ	0xFF4
  3696                           prodl	equ	0xFF3
  3697                           postinc0	equ	0xFEE
  3698                           postdec1	equ	0xFE5
  3699                           fsr1h	equ	0xFE2
  3700                           fsr1l	equ	0xFE1
  3701                           indf2	equ	0xFDF
  3702                           postinc2	equ	0xFDE
  3703                           postdec2	equ	0xFDD
  3704                           fsr2h	equ	0xFDA
  3705                           fsr2l	equ	0xFD9
  3706                           status	equ	0xFD8
  3707                           
  3708                           	psect	rparam
  3709  0000                     tblptru	equ	0xFF8
  3710                           tblptrh	equ	0xFF7
  3711                           tblptrl	equ	0xFF6
  3712                           tablat	equ	0xFF5
  3713                           prodh	equ	0xFF4
  3714                           prodl	equ	0xFF3
  3715                           postinc0	equ	0xFEE
  3716                           postdec1	equ	0xFE5
  3717                           fsr1h	equ	0xFE2
  3718                           fsr1l	equ	0xFE1
  3719                           indf2	equ	0xFDF
  3720                           postinc2	equ	0xFDE
  3721                           postdec2	equ	0xFDD
  3722                           fsr2h	equ	0xFDA
  3723                           fsr2l	equ	0xFD9
  3724                           status	equ	0xFD8


Data Sizes:
    Strings     36
    Constant    10
    Data        1992
    BSS         0
    Persistent  0
    Stack       0

Auto Spaces:
    Space          Size  Autos    Used
    COMRAM           95     47      47
    BANK0           160      0       0
    BANK1           256      0       0
    BANK2           256      0       0
    BANK3           256      0       0
    BANK4           256      0       0
    BANK5           256      0       0
    BANK6           256      0       0
    BANK7           256      0       0

Pointer List with Targets:

    strlen@s	PTR const unsigned char  size(2) Largest target is 1992
		 -> main@fileCharsEncoded(BIGRAM[1992]), 

    strlen@cp	PTR const unsigned char  size(2) Largest target is 1992
		 -> main@fileCharsEncoded(BIGRAM[1992]), 

    printf@f	PTR const unsigned char  size(2) Largest target is 15
		 -> STR_9(CODE[7]), STR_8(CODE[3]), STR_7(CODE[3]), STR_6(CODE[8]), 
		 -> STR_5(CODE[3]), STR_4(CODE[7]), STR_3(CODE[8]), STR_2(CODE[3]), 
		 -> STR_1(CODE[15]), 

    printf@ap	PTR void [1] size(2) Largest target is 2
		 -> ?_printf(COMRAM[2]), 

    decode_message@fileChars	PTR unsigned char  size(2) Largest target is 1992
		 -> main@fileCharsEncoded(BIGRAM[1992]), 


Critical Paths under _main in COMRAM

    _main->_decode_message
    _decode_message->_printf
    _printf->___lwmod
    ___lwmod->___lwdiv
    _UART_Init->___aldiv

Critical Paths under _main in BANK0

    None.

Critical Paths under _main in BANK1

    None.

Critical Paths under _main in BANK2

    None.

Critical Paths under _main in BANK3

    None.

Critical Paths under _main in BANK4

    None.

Critical Paths under _main in BANK5

    None.

Critical Paths under _main in BANK6

    None.

Critical Paths under _main in BANK7

    None.

Call Graph Tables:

 ---------------------------------------------------------------------------------
 (Depth) Function   	        Calls       Base Space   Used Autos Params    Refs
 ---------------------------------------------------------------------------------
 (0) _main                                                 0     0      0    4556
                          _UART_Init
                          _UART_Stop
                     _decode_message
                             _printf
 ---------------------------------------------------------------------------------
 (1) _decode_message                                      23    19      4    2268
                                             24 COMRAM    23    19      4
                             _printf
                             _strlen
 ---------------------------------------------------------------------------------
 (2) _strlen                                               6     4      2     218
                                              0 COMRAM     6     4      2
 ---------------------------------------------------------------------------------
 (1) _printf                                              21    17      4    1600
                                             12 COMRAM    12     8      4
                            ___lwdiv
                            ___lwmod
                              _putch
 ---------------------------------------------------------------------------------
 (2) _putch                                                1     1      0      15
                                              0 COMRAM     1     1      0
 ---------------------------------------------------------------------------------
 (2) ___lwmod                                              5     1      4     287
                                              7 COMRAM     5     1      4
                            ___lwdiv (ARG)
 ---------------------------------------------------------------------------------
 (2) ___lwdiv                                              7     3      4     290
                                              0 COMRAM     7     3      4
 ---------------------------------------------------------------------------------
 (1) _UART_Stop                                            0     0      0       0
 ---------------------------------------------------------------------------------
 (1) _UART_Init                                           10     6      4     688
                                             14 COMRAM    10     6      4
                            ___aldiv
 ---------------------------------------------------------------------------------
 (2) ___aldiv                                             14     6      8     556
                                              0 COMRAM    14     6      8
 ---------------------------------------------------------------------------------
 Estimated maximum stack depth 2
 ---------------------------------------------------------------------------------

 Call Graph Graphs:

 _main (ROOT)
   _UART_Init
     ___aldiv
   _UART_Stop
   _decode_message
     _printf
       ___lwdiv
       ___lwmod
         ___lwdiv (ARG)
       _putch
     _strlen
   _printf
     ___lwdiv
     ___lwmod
       ___lwdiv (ARG)
     _putch

 Address spaces:
Name               Size   Autos  Total    Cost      Usage
BIGRAM             7FF      0     7C8      21       97.3%
EEDATA             100      0       0       0        0.0%
BITBANK7           100      0       0      18        0.0%
BANK7              100      0       0      19        0.0%
BITBANK6           100      0       0      16        0.0%
BANK6              100      0       0      17        0.0%
BITBANK5           100      0       0      14        0.0%
BANK5              100      0       0      15        0.0%
BITBANK4           100      0       0      12        0.0%
BANK4              100      0       0      13        0.0%
BITBANK3           100      0       0      10        0.0%
BANK3              100      0       0      11        0.0%
BITBANK2           100      0       0       8        0.0%
BANK2              100      0       0       9        0.0%
BITBANK1           100      0       0       6        0.0%
BANK1              100      0       0       7        0.0%
BITBANK0            A0      0       0       4        0.0%
BANK0               A0      0       0       5        0.0%
BITCOMRAM           5F      0       0       0        0.0%
COMRAM              5F     2F      2F       1       49.5%
BITSFR               0      0       0     200        0.0%
SFR                  0      0       0     200        0.0%
STACK                0      0       0       2        0.0%
NULL                 0      0       0       0        0.0%
ABS                  0      0      2F      20        0.0%
DATA                 0      0     7F7       3        0.0%
CODE                 0      0       0       0        0.0%


Microchip Technology PIC18 Macro Assembler V1.40 build -251452761 
Symbol Table                                                                                   Mon Feb 06 17:07:40 2017

                          l27 14E8                            l59 11EA             decode_message@idx 0024  
                         l508 1426                           l498 13E4                           l995 13B2  
                         l997 13BA                           l999 13BE                  __CFG_FOSC$HS 000000  
          decode_message@temp 002A                  __CFG_WDT$OFF 000000                          l1101 1276  
                        l1007 13DA                          l1023 141C                          l1015 13FC  
                        l1113 12B0                          l1017 1404                          l1033 1012  
                        l1115 12BC                          l1107 128E                          l1019 1408  
                        l1035 1018                          l1043 1034                          l1133 1314  
                        l1125 12F0                          l1117 12C0                          l1045 1060  
                        l1029 1002                          l1055 1088                          l1039 102C  
                        l1129 12FE                          l1073 10CA                          l1057 108C  
                        l1081 1120                          l1075 10D0                          l1069 10B8  
                        l1085 1476                          l1079 1118                          l1087 147A  
                        l1167 11A6                          l1183 1216                          l1177 11E6  
                        l1187 1234                          l1189 1238                _decode_message 113A  
                        STR_1 080B                          STR_2 082C                          STR_3 081A  
                        STR_4 0822                          STR_5 082C                          STR_6 081A  
                        STR_7 0829                          STR_8 0829                          STR_9 0822  
                        _CREN 007D5C                          _SPEN 007D5F                          _TXEN 007D65  
                        _SYNC 007D64                          _main 1430                          fsr1h 000FE2  
                        fsr2h 000FDA                          indf2 000FDF                          fsr1l 000FE1  
                        fsr2l 000FD9                          prodh 000FF4                          prodl 000FF3  
                        start 0000                  ___param_bank 000000               __end_of___aldiv 1326  
                       ?_main 0001               __end_of___lwdiv 13EE               __end_of___lwmod 1430  
                       _SPBRG 000FAF                         _TXREG 000FAD            __size_of_UART_Init 0076  
      __end_of_decode_message 125A            __size_of_UART_Stop 0012               __end_of_dpowers 080B  
                       _putch 14E6                         tablat 000FF5                         status 000FD8  
        decode_message@length 001B          decode_message@readTo 0026                __CFG_MCLRE$OFF 000000  
             __initialization 14A6                  __end_of_main 146C                        ??_main 0030  
               __activetblptr 000002               ?_decode_message 0019                        ?_putch 0001  
                      _TRISC6 007CA6                        _TRISC7 007CA7             __end_of_UART_Init 139C  
           __end_of_UART_Stop 14E6                     ??___aldiv 0009                     ??___lwdiv 0005  
                   ??___lwmod 000C                        _printf 0FF8                        _strlen 146C  
                __pdataBIGRAM 0038                  __mediumconst 0000                        tblptrh 000FF7  
                      tblptrl 000FF6                        tblptru 000FF8                    __accesstop 0060  
     __end_of__initialization 14CA               __CFG_PBADEN$OFF 000000               decode_message@i 002C  
               ___rparam_used 000001         decode_message@numRead 002E                __pcstackCOMRAM 0001  
               __end_of_putch 14F2                       ??_putch 0001                       ?_printf 000D  
                     ?_strlen 0001                       __Hparam 0000                       __Lparam 0000  
                     ___aldiv 125A                       ___lwdiv 139C                       ___lwmod 13EE  
                __psmallconst 0800                       __pcinit 14A6                       __ramtop 0800  
                     __ptext0 1430                       __ptext1 113A                       __ptext2 146C  
                     __ptext3 0FF8                       __ptext4 14E6                       __ptext5 13EE  
                     __ptext6 139C                       __ptext7 14D4                       __ptext8 1326  
                     __ptext9 125A               __size_of_printf 0142              ??_decode_message 001D  
             __size_of_strlen 003A                       _dpowers 0801              ___aldiv@dividend 0001  
        end_of_initialization 14CA                 __Lmediumconst 0000                       printf@c 0018  
                     printf@f 000D              ___aldiv@quotient 000B                       postdec1 000FE5  
                     postdec2 000FDD                       postinc0 000FEE                       postinc2 000FDE  
                     strlen@s 0001                     _UART_Init 1326                     _UART_Stop 14D4  
      decode_message@fileSize 0028                 __pidataBIGRAM 0830                    ?_UART_Init 000F  
                  ?_UART_Stop 0001                __end_of_printf 113A                __end_of_strlen 14A6  
         start_initialization 14A6                      ??_printf 0011                      ??_strlen 0003  
            ___lwdiv@dividend 0001                      ?___aldiv 0001                      ?___lwdiv 0001  
                    ?___lwmod 0008                   ??_UART_Init 0013                   ??_UART_Stop 0001  
        main@fileCharsEncoded 0038                   __smallconst 0800                 _UART_Init$688 0013  
            ___lwdiv@quotient 0005                    UART_Init@x 0017                __size_of_putch 000C  
             ___aldiv@divisor 0005               ___aldiv@counter 0009                      _PIR1bits 000F9E  
            __CFG_WDTPS$32768 000000             UART_Init@baudrate 000F                    printf@flag 0012  
                  printf@prec 0013                     copy_data0 14BA                      __Hrparam 0000  
                    __Lrparam 0000              __size_of___aldiv 00CC              __size_of___lwdiv 0052  
            __size_of___lwmod 0042               ___lwdiv@divisor 0003               ___lwdiv@counter 0007  
     __size_of_decode_message 0120  decode_message@secret_message 001F                 __size_of_main 003C  
                   printf@val 0016                     putch@data 0001              ___lwmod@dividend 0008  
                    printf@ap 0014               ___lwmod@divisor 000A                      strlen@cp 0005  
             ___lwmod@counter 000C      decode_message@charBuffer 002B                  ___aldiv@sign 000A  
     decode_message@fileChars 0019  
